

Microchip Technology PIC18 LITE Macro Assembler V1.34 build -361300703 
                                                                                               Thu Feb 23 12:04:27 2017

Microchip Technology Omniscient Code Generator (Lite mode) build 201502162209
     1                           	processor	18F4550
     2                           	fnconf	rparam,??,?,0
     3                           	opt	pw 120
     4                           	opt	lm
     5                           	psect	smallconst,global,reloc=2,class=SMALLCONST,delta=1
     6                           	psect	cinit,global,reloc=2,class=CODE,delta=1
     7                           	psect	bssBANK0,global,class=BANK0,space=1,delta=1
     8                           	psect	cstackBANK0,global,class=BANK0,space=1,delta=1
     9                           	psect	cstackCOMRAM,global,class=COMRAM,space=1,delta=1
    10                           	psect	text0,global,reloc=2,class=CODE,delta=1
    11                           	psect	text1,global,reloc=2,class=CODE,delta=1
    12                           	psect	text2,global,reloc=2,class=CODE,delta=1
    13                           	psect	text3,global,reloc=2,class=CODE,delta=1
    14                           	psect	text4,global,reloc=2,class=CODE,delta=1
    15                           	psect	text5,global,reloc=2,class=CODE,delta=1
    16                           	psect	text6,global,reloc=2,class=CODE,delta=1
    17                           	psect	text7,global,reloc=2,class=CODE,delta=1
    18                           	psect	text8,global,reloc=2,class=CODE,delta=1
    19                           	psect	text9,global,reloc=2,class=CODE,delta=1
    20                           	psect	text10,global,reloc=2,class=CODE,delta=1
    21                           	psect	text11,global,reloc=2,class=CODE,delta=1
    22                           	psect	text12,global,reloc=2,class=CODE,delta=1
    23                           	psect	text13,global,reloc=2,class=CODE,delta=1
    24                           	psect	text14,global,reloc=2,class=CODE,delta=1
    25                           	psect	text15,global,reloc=2,class=CODE,delta=1
    26                           	psect	text16,global,reloc=2,class=CODE,delta=1
    27                           	psect	text17,global,reloc=2,class=CODE,delta=1
    28                           	psect	text18,global,reloc=2,class=CODE,delta=1
    29                           	psect	text19,global,reloc=2,class=CODE,delta=1
    30                           	psect	text20,global,reloc=2,class=CODE,delta=1
    31                           	psect	text21,global,reloc=2,class=CODE,delta=1
    32                           	psect	text22,global,reloc=2,class=CODE,delta=1
    33                           	psect	text23,global,reloc=2,class=CODE,delta=1
    34                           	psect	text24,global,reloc=2,class=CODE,delta=1
    35                           	psect	intcode,global,reloc=2,class=CODE,delta=1
    36                           	psect	intcode_body,global,reloc=2,class=CODE,delta=1
    37                           	psect	intsave_regs,global,class=BIGRAM,space=1,delta=1
    38                           	psect	rparam,global,class=COMRAM,space=1,delta=1
    39  0000                     _ADCON0bits	set	4034
    40  0000                     _ADCON1bits	set	4033
    41  0000                     _ADCON2bits	set	4032
    42  0000                     _ADRESH	set	4036
    43  0000                     _ADRESL	set	4035
    44  0000                     _INTCONbits	set	4082
    45  0000                     _LATBbits	set	3978
    46  0000                     _PIE1bits	set	3997
    47  0000                     _PIR1bits	set	3998
    48  0000                     _PORTB	set	3969
    49  0000                     _PORTD	set	3971
    50  0000                     _TRISAbits	set	3986
    51  0000                     _TRISB	set	3987
    52  0000                     _TRISBbits	set	3987
    53  0000                     _TRISD	set	3989
    54                           
    55                           	psect	smallconst
    56  000800                     __psmallconst:
    57                           	opt stack 0
    58  000800  00                 	db	0
    59  000801                     STR_1:
    60  000801  56                 	db	86	;'V'
    61  000802  4F                 	db	79	;'O'
    62  000803  4C                 	db	76	;'L'
    63  000804  54                 	db	84	;'T'
    64  000805  4D                 	db	77	;'M'
    65  000806  45                 	db	69	;'E'
    66  000807  54                 	db	84	;'T'
    67  000808  45                 	db	69	;'E'
    68  000809  52                 	db	82	;'R'
    69  00080A  00                 	db	0
    70  00080B                     STR_2:
    71  00080B  56                 	db	86	;'V'
    72  00080C  3D                 	db	61	;'='
    73  00080D  00                 	db	0
    74                           
    75                           ; #config settings
    76  00080E  00                 	db	0	; dummy byte at the end
    77  0000                     
    78                           	psect	cinit
    79  001588                     __pcinit:
    80                           	opt stack 0
    81  001588                     start_initialization:
    82                           	opt stack 0
    83  001588                     __initialization:
    84                           	opt stack 0
    85                           
    86                           ; Clear objects allocated to BANK0 (2 bytes)
    87  001588  0100               	movlb	0
    88  00158A  6B82               	clrf	(__pbssBANK0+1)& (0+255),b
    89  00158C  6B81               	clrf	__pbssBANK0& (0+255),b
    90  00158E                     end_of_initialization:
    91                           	opt stack 0
    92  00158E                     __end_of__initialization:
    93                           	opt stack 0
    94  00158E  0E00               	movlw	low (__Lsmallconst shr (0+16))
    95  001590  6EF8               	movwf	tblptru,c
    96  001592  0E08               	movlw	high __Lsmallconst
    97  001594  6EF7               	movwf	tblptrh,c
    98  001596  0100               	movlb	0
    99  001598  EF08  F004         	goto	_main	;jump to C main() function
   100                           tblptru	equ	0xFF8
   101                           tblptrh	equ	0xFF7
   102                           
   103                           	psect	bssBANK0
   104  000081                     __pbssBANK0:
   105                           	opt stack 0
   106  000081                     _CH0_High:
   107                           	opt stack 0
   108  000081                     	ds	1
   109  000082                     _CH0_Low:
   110                           	opt stack 0
   111  000082                     	ds	1
   112                           tblptru	equ	0xFF8
   113                           tblptrh	equ	0xFF7
   114                           
   115                           	psect	cstackBANK0
   116  000060                     __pcstackBANK0:
   117                           	opt stack 0
   118  000060                     ??_main:
   119                           
   120                           ; 0 bytes @ 0x0
   121  000060                     	ds	12
   122  00006C                     main@op:
   123                           	opt stack 0
   124                           
   125                           ; 10 bytes @ 0xC
   126  00006C                     	ds	10
   127  000076                     main@Vin:
   128                           	opt stack 0
   129                           
   130                           ; 4 bytes @ 0x16
   131  000076                     	ds	4
   132  00007A                     main@F:
   133                           	opt stack 0
   134                           
   135                           ; 1 bytes @ 0x1A
   136  00007A                     	ds	1
   137  00007B                     main@S:
   138                           	opt stack 0
   139                           
   140                           ; 1 bytes @ 0x1B
   141  00007B                     	ds	1
   142  00007C                     main@D:
   143                           	opt stack 0
   144                           
   145                           ; 1 bytes @ 0x1C
   146  00007C                     	ds	1
   147  00007D                     main@mV:
   148                           	opt stack 0
   149                           
   150                           ; 4 bytes @ 0x1D
   151  00007D                     	ds	4
   152                           tblptru	equ	0xFF8
   153                           tblptrh	equ	0xFF7
   154                           
   155                           	psect	cstackCOMRAM
   156  000001                     __pcstackCOMRAM:
   157                           	opt stack 0
   158  000001                     ??_adc_int_handler:
   159  000001                     
   160                           ; 2 bytes @ 0x0
   161  000001                     	ds	14
   162  00000F                     ??_SetDDRamAddr:
   163  00000F                     ??_Delay10KTCYx:
   164  00000F                     ??_Delay_Seconds:
   165  00000F                     ??_Delay_100ms:
   166  00000F                     ??_DelayPORXLCD:
   167  00000F                     ?___wmul:
   168                           	opt stack 0
   169  00000F                     ?___lwdiv:
   170                           	opt stack 0
   171  00000F                     ?___lwmod:
   172                           	opt stack 0
   173  00000F                     ?___ftpack:
   174                           	opt stack 0
   175  00000F                     WriteCmdXLCD@cmd:
   176                           	opt stack 0
   177  00000F                     WriteDataXLCD@data:
   178                           	opt stack 0
   179  00000F                     ___wmul@multiplier:
   180                           	opt stack 0
   181  00000F                     ___lwdiv@dividend:
   182                           	opt stack 0
   183  00000F                     ___lwmod@dividend:
   184                           	opt stack 0
   185  00000F                     ___ftpack@arg:
   186                           	opt stack 0
   187                           
   188                           ; 3 bytes @ 0xE
   189  00000F                     	ds	1
   190  000010                     Delay_Seconds@s:
   191                           	opt stack 0
   192  000010                     Delay_100ms@x:
   193                           	opt stack 0
   194  000010                     Delay10KTCYx@unit:
   195                           	opt stack 0
   196  000010                     putrsXLCD@buffer:
   197                           	opt stack 0
   198                           
   199                           ; 2 bytes @ 0xF
   200  000010                     	ds	1
   201  000011                     Delay_Seconds@j:
   202                           	opt stack 0
   203  000011                     Delay_100ms@i:
   204                           	opt stack 0
   205  000011                     ___wmul@multiplicand:
   206                           	opt stack 0
   207  000011                     ___lwdiv@divisor:
   208                           	opt stack 0
   209  000011                     ___lwmod@divisor:
   210                           	opt stack 0
   211                           
   212                           ; 2 bytes @ 0x10
   213  000011                     	ds	1
   214  000012                     Delay_Seconds@i:
   215                           	opt stack 0
   216  000012                     Delay_100ms@j:
   217                           	opt stack 0
   218  000012                     SetDDRamAddr@DDaddr:
   219                           	opt stack 0
   220  000012                     ___ftpack@exp:
   221                           	opt stack 0
   222                           
   223                           ; 1 bytes @ 0x11
   224  000012                     	ds	1
   225  000013                     LCD_Move@column:
   226                           	opt stack 0
   227  000013                     OpenXLCD@lcdtype:
   228                           	opt stack 0
   229  000013                     ___ftpack@sign:
   230                           	opt stack 0
   231  000013                     ___lwmod@counter:
   232                           	opt stack 0
   233  000013                     ___wmul@product:
   234                           	opt stack 0
   235  000013                     ___lwdiv@quotient:
   236                           	opt stack 0
   237                           
   238                           ; 2 bytes @ 0x12
   239  000013                     	ds	1
   240  000014                     ??___ftpack:
   241  000014                     LCD_Move@row:
   242                           	opt stack 0
   243                           
   244                           ; 1 bytes @ 0x13
   245  000014                     	ds	1
   246  000015                     ?___lldiv:
   247                           	opt stack 0
   248  000015                     LCD_Move@ddaddr:
   249                           	opt stack 0
   250  000015                     ___lwdiv@counter:
   251                           	opt stack 0
   252  000015                     ___lldiv@dividend:
   253                           	opt stack 0
   254                           
   255                           ; 4 bytes @ 0x14
   256  000015                     	ds	1
   257  000016                     utoa@buf:
   258                           	opt stack 0
   259                           
   260                           ; 2 bytes @ 0x15
   261  000016                     	ds	1
   262  000017                     ?___lltoft:
   263                           	opt stack 0
   264  000017                     ___lltoft@c:
   265                           	opt stack 0
   266                           
   267                           ; 4 bytes @ 0x16
   268  000017                     	ds	1
   269  000018                     utoa@val:
   270                           	opt stack 0
   271                           
   272                           ; 2 bytes @ 0x17
   273  000018                     	ds	1
   274  000019                     ___lldiv@divisor:
   275                           	opt stack 0
   276                           
   277                           ; 4 bytes @ 0x18
   278  000019                     	ds	1
   279  00001A                     utoa@base:
   280                           	opt stack 0
   281                           
   282                           ; 2 bytes @ 0x19
   283  00001A                     	ds	1
   284  00001B                     ??___lltoft:
   285                           
   286                           ; 0 bytes @ 0x1A
   287  00001B                     	ds	1
   288  00001C                     utoa@v:
   289                           	opt stack 0
   290                           
   291                           ; 2 bytes @ 0x1B
   292  00001C                     	ds	1
   293  00001D                     ___lldiv@quotient:
   294                           	opt stack 0
   295                           
   296                           ; 4 bytes @ 0x1C
   297  00001D                     	ds	1
   298  00001E                     utoa@c:
   299                           	opt stack 0
   300                           
   301                           ; 1 bytes @ 0x1D
   302  00001E                     	ds	1
   303  00001F                     ___lltoft@exp:
   304                           	opt stack 0
   305  00001F                     itoa@buf:
   306                           	opt stack 0
   307                           
   308                           ; 2 bytes @ 0x1E
   309  00001F                     	ds	1
   310  000020                     ?___ftdiv:
   311                           	opt stack 0
   312  000020                     ___ftdiv@f1:
   313                           	opt stack 0
   314                           
   315                           ; 3 bytes @ 0x1F
   316  000020                     	ds	1
   317  000021                     ___lldiv@counter:
   318                           	opt stack 0
   319  000021                     itoa@val:
   320                           	opt stack 0
   321                           
   322                           ; 2 bytes @ 0x20
   323  000021                     	ds	2
   324  000023                     itoa@base:
   325                           	opt stack 0
   326  000023                     ___ftdiv@f2:
   327                           	opt stack 0
   328                           
   329                           ; 3 bytes @ 0x22
   330  000023                     	ds	2
   331  000025                     itoa@cp:
   332                           	opt stack 0
   333                           
   334                           ; 2 bytes @ 0x24
   335  000025                     	ds	1
   336  000026                     ??___ftdiv:
   337                           
   338                           ; 0 bytes @ 0x25
   339  000026                     	ds	3
   340  000029                     ___ftdiv@cntr:
   341                           	opt stack 0
   342                           
   343                           ; 1 bytes @ 0x28
   344  000029                     	ds	1
   345  00002A                     ___ftdiv@f3:
   346                           	opt stack 0
   347                           
   348                           ; 3 bytes @ 0x29
   349  00002A                     	ds	3
   350  00002D                     ___ftdiv@exp:
   351                           	opt stack 0
   352                           
   353                           ; 1 bytes @ 0x2C
   354  00002D                     	ds	1
   355  00002E                     ___ftdiv@sign:
   356                           	opt stack 0
   357                           
   358                           ; 1 bytes @ 0x2D
   359  00002E                     	ds	1
   360  00002F                     ?___ftmul:
   361                           	opt stack 0
   362  00002F                     ___ftmul@f1:
   363                           	opt stack 0
   364                           
   365                           ; 3 bytes @ 0x2E
   366  00002F                     	ds	3
   367  000032                     ___ftmul@f2:
   368                           	opt stack 0
   369                           
   370                           ; 3 bytes @ 0x31
   371  000032                     	ds	3
   372  000035                     ??___ftmul:
   373                           
   374                           ; 0 bytes @ 0x34
   375  000035                     	ds	3
   376  000038                     ___ftmul@exp:
   377                           	opt stack 0
   378                           
   379                           ; 1 bytes @ 0x37
   380  000038                     	ds	1
   381  000039                     ___ftmul@f3_as_product:
   382                           	opt stack 0
   383                           
   384                           ; 3 bytes @ 0x38
   385  000039                     	ds	3
   386  00003C                     ___ftmul@cntr:
   387                           	opt stack 0
   388                           
   389                           ; 1 bytes @ 0x3B
   390  00003C                     	ds	1
   391  00003D                     ___ftmul@sign:
   392                           	opt stack 0
   393                           
   394                           ; 1 bytes @ 0x3C
   395  00003D                     	ds	1
   396  00003E                     ?___fttol:
   397                           	opt stack 0
   398  00003E                     ___fttol@f1:
   399                           	opt stack 0
   400                           
   401                           ; 3 bytes @ 0x3D
   402  00003E                     	ds	4
   403  000042                     ??___fttol:
   404                           
   405                           ; 0 bytes @ 0x41
   406  000042                     	ds	5
   407  000047                     ___fttol@sign1:
   408                           	opt stack 0
   409                           
   410                           ; 1 bytes @ 0x46
   411  000047                     	ds	1
   412  000048                     ___fttol@lval:
   413                           	opt stack 0
   414                           
   415                           ; 4 bytes @ 0x47
   416  000048                     	ds	4
   417  00004C                     ___fttol@exp1:
   418                           	opt stack 0
   419                           
   420                           ; 1 bytes @ 0x4B
   421  00004C                     	ds	1
   422                           tblptru	equ	0xFF8
   423                           tblptrh	equ	0xFF7
   424                           
   425 ;;
   426 ;;Main: autosize = 0, tempsize = 12, incstack = 0, save=0
   427 ;;
   428 ;; *************** function _main *****************
   429 ;; Defined at:
   430 ;;		line 108 in file "C:/Users/Davide/Desktop/Progetti_proteus_MPlabX/LCD_control_PIC18.X/newmain.c"
   431 ;; Parameters:    Size  Location     Type
   432 ;;		None
   433 ;; Auto vars:     Size  Location     Type
   434 ;;  op             10   12[BANK0 ] unsigned char [10]
   435 ;;  mV              4   29[BANK0 ] unsigned long 
   436 ;;  Vin             4   22[BANK0 ] unsigned long 
   437 ;;  D               1   28[BANK0 ] unsigned char 
   438 ;;  S               1   27[BANK0 ] unsigned char 
   439 ;;  F               1   26[BANK0 ] unsigned char 
   440 ;;  T               1    0        unsigned char 
   441 ;; Return value:  Size  Location     Type
   442 ;;                  2   86[None  ] int 
   443 ;; Registers used:
   444 ;;		wreg, fsr2l, fsr2h, status,2, status,0, tblptrl, tblptrh, tblptru, prodl, prodh, cstack
   445 ;; Tracked objects:
   446 ;;		On entry : 0/0
   447 ;;		On exit  : 0/0
   448 ;;		Unchanged: 0/0
   449 ;; Data sizes:     COMRAM   BANK0   BANK1   BANK2   BANK3   BANK4   BANK5   BANK6   BANK7
   450 ;;      Params:         0       0       0       0       0       0       0       0       0
   451 ;;      Locals:         0      21       0       0       0       0       0       0       0
   452 ;;      Temps:          0      12       0       0       0       0       0       0       0
   453 ;;      Totals:         0      33       0       0       0       0       0       0       0
   454 ;;Total ram usage:       33 bytes
   455 ;; Hardware stack levels required when called:    4
   456 ;; This function calls:
   457 ;;		_BusyXLCD
   458 ;;		_Delay_100ms
   459 ;;		_Delay_Seconds
   460 ;;		_LCD_Clear
   461 ;;		_LCD_Move
   462 ;;		_OpenXLCD
   463 ;;		_WriteCmdXLCD
   464 ;;		_WriteDataXLCD
   465 ;;		___ftdiv
   466 ;;		___ftmul
   467 ;;		___fttol
   468 ;;		___lldiv
   469 ;;		___lltoft
   470 ;;		___wmul
   471 ;;		_itoa
   472 ;;		_putrsXLCD
   473 ;; This function is called by:
   474 ;;		Startup code after reset
   475 ;; This function uses a non-reentrant model
   476 ;;
   477                           
   478                           	psect	text0
   479  000810                     __ptext0:
   480                           	opt stack 0
   481  000810                     _main:
   482                           	opt stack 27
   483                           
   484                           ;newmain.c: 110: unsigned long Vin, mV;
   485                           ;newmain.c: 111: char op[10];
   486                           ;newmain.c: 112: unsigned char D; unsigned char F; unsigned char S; unsigned char T;
   487                           ;newmain.c: 117: INTCONbits.GIE = 1;
   488                           
   489                           ;incstack = 0
   490  000810  8EF2               	bsf	intcon,7,c	;volatile
   491                           
   492                           ;newmain.c: 118: INTCONbits.PEIE = 1;
   493  000812  8CF2               	bsf	intcon,6,c	;volatile
   494                           
   495                           ;newmain.c: 119: PIE1bits.ADIE =1;
   496  000814  8C9D               	bsf	3997,6,c	;volatile
   497                           
   498                           ;newmain.c: 125: TRISAbits.RA0 = 1;
   499  000816  8092               	bsf	3986,0,c	;volatile
   500                           
   501                           ;newmain.c: 127: TRISD = 0x00;
   502  000818  0E00               	movlw	0
   503  00081A  6E95               	movwf	3989,c	;volatile
   504                           
   505                           ;newmain.c: 135: ADCON2bits.ADFM = 0;
   506  00081C  9EC0               	bcf	4032,7,c	;volatile
   507                           
   508                           ;newmain.c: 139: ADCON1bits.PCFG3 = 1;
   509  00081E  86C1               	bsf	4033,3,c	;volatile
   510                           
   511                           ;newmain.c: 140: ADCON1bits.PCFG2 = 1;
   512  000820  84C1               	bsf	4033,2,c	;volatile
   513                           
   514                           ;newmain.c: 141: ADCON1bits.PCFG1 = 1;
   515  000822  82C1               	bsf	4033,1,c	;volatile
   516                           
   517                           ;newmain.c: 142: ADCON1bits.PCFG0 = 0;
   518  000824  90C1               	bcf	4033,0,c	;volatile
   519                           
   520                           ;newmain.c: 146: ADCON0bits.CHS0 = 0;
   521  000826  94C2               	bcf	4034,2,c	;volatile
   522                           
   523                           ;newmain.c: 147: ADCON0bits.CHS1 = 0;
   524  000828  96C2               	bcf	4034,3,c	;volatile
   525                           
   526                           ;newmain.c: 148: ADCON0bits.CHS2 = 0;
   527  00082A  98C2               	bcf	4034,4,c	;volatile
   528                           
   529                           ;newmain.c: 149: ADCON0bits.CHS2 = 0;
   530  00082C  98C2               	bcf	4034,4,c	;volatile
   531                           
   532                           ;newmain.c: 153: ADCON2bits.ADCS0 = 1;
   533  00082E  80C0               	bsf	4032,0,c	;volatile
   534                           
   535                           ;newmain.c: 154: ADCON2bits.ADCS1 = 0;
   536  000830  92C0               	bcf	4032,1,c	;volatile
   537                           
   538                           ;newmain.c: 155: ADCON2bits.ADCS2 = 1;
   539  000832  84C0               	bsf	4032,2,c	;volatile
   540                           
   541                           ;newmain.c: 161: ADCON0bits.ADON = 1;
   542  000834  80C2               	bsf	4034,0,c	;volatile
   543                           
   544                           ;newmain.c: 165: ADCON0bits.GO = 1;
   545  000836  82C2               	bsf	4034,1,c	;volatile
   546                           
   547                           ;newmain.c: 167: Delay_Seconds(1);
   548  000838  0E01               	movlw	1
   549  00083A  EC51  F00A         	call	_Delay_Seconds
   550                           
   551                           ;newmain.c: 168: OpenXLCD(0b00101100 & 0b00111000);
   552  00083E  0E28               	movlw	40
   553  000840  ECD4  F007         	call	_OpenXLCD
   554                           
   555                           ;newmain.c: 170: while(BusyXLCD());
   556  000844  D000               	goto	l1996
   557  000846                     l1996:
   558  000846  EC17  F00A         	call	_BusyXLCD	;wreg free
   559  00084A  0900               	iorlw	0
   560  00084C  A4D8               	btfss	status,2,c
   561  00084E  D7FB               	goto	l1996
   562                           
   563                           ;newmain.c: 171: WriteCmdXLCD(0b00001111);
   564  000850  0E0F               	movlw	15
   565  000852  ECF7  F009         	call	_WriteCmdXLCD
   566                           
   567                           ;newmain.c: 172: WriteCmdXLCD(0b00001110);
   568  000856  0E0E               	movlw	14
   569  000858  ECF7  F009         	call	_WriteCmdXLCD
   570                           
   571                           ;newmain.c: 175: while(BusyXLCD());
   572  00085C  D000               	goto	l2000
   573  00085E                     l2000:
   574  00085E  EC17  F00A         	call	_BusyXLCD	;wreg free
   575  000862  0900               	iorlw	0
   576  000864  A4D8               	btfss	status,2,c
   577  000866  D7FB               	goto	l2000
   578                           
   579                           ;newmain.c: 176: WriteCmdXLCD(0x06);
   580  000868  0E06               	movlw	6
   581  00086A  ECF7  F009         	call	_WriteCmdXLCD
   582                           
   583                           ;newmain.c: 177: putrsXLCD("VOLTMETER");
   584  00086E  0E01               	movlw	low STR_1
   585  000870  6E10               	movwf	putrsXLCD@buffer,c
   586  000872  0E08               	movlw	high STR_1
   587  000874  6E11               	movwf	putrsXLCD@buffer+1,c
   588  000876  EC35  F00A         	call	_putrsXLCD	;wreg free
   589                           
   590                           ;newmain.c: 178: Delay_Seconds(2);
   591  00087A  0E02               	movlw	2
   592  00087C  EC51  F00A         	call	_Delay_Seconds
   593                           
   594                           ;newmain.c: 179: LCD_Clear();
   595  000880  ECCE  F00A         	call	_LCD_Clear	;wreg free
   596                           
   597                           ;newmain.c: 181: LCD_Move(1,4);
   598  000884  0E04               	movlw	4
   599  000886  6E13               	movwf	LCD_Move@column,c
   600  000888  0E01               	movlw	1
   601  00088A  EC99  F00A         	call	_LCD_Move
   602                           
   603                           ;newmain.c: 182: putrsXLCD("V=");
   604  00088E  0E0B               	movlw	low STR_2
   605  000890  6E10               	movwf	putrsXLCD@buffer,c
   606  000892  0E08               	movlw	high STR_2
   607  000894  6E11               	movwf	putrsXLCD@buffer+1,c
   608  000896  EC35  F00A         	call	_putrsXLCD	;wreg free
   609  00089A  D000               	goto	l2014
   610  00089C                     l2014:
   611                           
   612                           ;newmain.c: 186: mV=0;
   613  00089C  0E00               	movlw	0
   614  00089E  0100               	movlb	0	; () banked
   615  0008A0  6F7D               	movwf	main@mV& (0+255),b
   616  0008A2  0E00               	movlw	0
   617  0008A4  6F7E               	movwf	(main@mV+1)& (0+255),b
   618  0008A6  0E00               	movlw	0
   619  0008A8  6F7F               	movwf	(main@mV+2)& (0+255),b
   620  0008AA  0E00               	movlw	0
   621  0008AC  6F80               	movwf	(main@mV+3)& (0+255),b
   622                           
   623                           ; BSR set to: 0
   624                           ;newmain.c: 187: Vin=0;
   625  0008AE  0E00               	movlw	0
   626  0008B0  0100               	movlb	0	; () banked
   627  0008B2  6F76               	movwf	main@Vin& (0+255),b
   628  0008B4  0E00               	movlw	0
   629  0008B6  6F77               	movwf	(main@Vin+1)& (0+255),b
   630  0008B8  0E00               	movlw	0
   631  0008BA  6F78               	movwf	(main@Vin+2)& (0+255),b
   632  0008BC  0E00               	movlw	0
   633  0008BE  6F79               	movwf	(main@Vin+3)& (0+255),b
   634                           
   635                           ; BSR set to: 0
   636                           ;newmain.c: 189: mV = CH0_Low>>6;
   637  0008C0  C082  F060         	movff	_CH0_Low,??_main
   638  0008C4  0E06               	movlw	6
   639  0008C6  0100               	movlb	0	; () banked
   640  0008C8  6F61               	movwf	(??_main+1)& (0+255),b
   641  0008CA                     u1265:
   642  0008CA  0100               	movlb	0	; () banked
   643  0008CC  90D8               	bcf	status,0,c
   644  0008CE  3360               	rrcf	??_main& (0+255),f,b
   645  0008D0  0100               	movlb	0	; () banked
   646  0008D2  2F61               	decfsz	(??_main+1)& (0+255),f,b
   647  0008D4  D7FA               	goto	u1265
   648  0008D6  0100               	movlb	0	; () banked
   649  0008D8  5160               	movf	??_main& (0+255),w,b
   650  0008DA  0100               	movlb	0	; () banked
   651  0008DC  6F7D               	movwf	main@mV& (0+255),b
   652  0008DE  6B7E               	clrf	(main@mV+1)& (0+255),b
   653  0008E0  6B7F               	clrf	(main@mV+2)& (0+255),b
   654  0008E2  6B80               	clrf	(main@mV+3)& (0+255),b
   655                           
   656                           ; BSR set to: 0
   657                           ;newmain.c: 190: Vin = CH0_High<<2;
   658  0008E4  0100               	movlb	0	; () banked
   659  0008E6  5181               	movf	_CH0_High& (0+255),w,b
   660  0008E8  0100               	movlb	0	; () banked
   661  0008EA  6F60               	movwf	??_main& (0+255),b
   662  0008EC  6B61               	clrf	(??_main+1)& (0+255),b
   663  0008EE  0100               	movlb	0	; () banked
   664  0008F0  90D8               	bcf	status,0,c
   665  0008F2  3760               	rlcf	??_main& (0+255),f,b
   666  0008F4  3761               	rlcf	(??_main+1)& (0+255),f,b
   667  0008F6  0100               	movlb	0	; () banked
   668  0008F8  90D8               	bcf	status,0,c
   669  0008FA  3760               	rlcf	??_main& (0+255),f,b
   670  0008FC  3761               	rlcf	(??_main+1)& (0+255),f,b
   671  0008FE  C060  F076         	movff	??_main,main@Vin
   672  000902  C061  F077         	movff	??_main+1,main@Vin+1
   673  000906  0100               	movlb	0	; () banked
   674  000908  0E00               	movlw	0
   675  00090A  BF77               	btfsc	(main@Vin+1)& (0+255),7,b
   676  00090C  0EFF               	movlw	-1
   677  00090E  6F78               	movwf	(main@Vin+2)& (0+255),b
   678  000910  6F79               	movwf	(main@Vin+3)& (0+255),b
   679                           
   680                           ; BSR set to: 0
   681                           ;newmain.c: 192: mV= mV | Vin;
   682  000912  0100               	movlb	0	; () banked
   683  000914  5176               	movf	main@Vin& (0+255),w,b
   684  000916  0100               	movlb	0	; () banked
   685  000918  117D               	iorwf	main@mV& (0+255),w,b
   686  00091A  0100               	movlb	0	; () banked
   687  00091C  6F7D               	movwf	main@mV& (0+255),b
   688  00091E  0100               	movlb	0	; () banked
   689  000920  5177               	movf	(main@Vin+1)& (0+255),w,b
   690  000922  0100               	movlb	0	; () banked
   691  000924  117E               	iorwf	(main@mV+1)& (0+255),w,b
   692  000926  0100               	movlb	0	; () banked
   693  000928  6F7E               	movwf	(main@mV+1)& (0+255),b
   694  00092A  0100               	movlb	0	; () banked
   695  00092C  5178               	movf	(main@Vin+2)& (0+255),w,b
   696  00092E  0100               	movlb	0	; () banked
   697  000930  117F               	iorwf	(main@mV+2)& (0+255),w,b
   698  000932  0100               	movlb	0	; () banked
   699  000934  6F7F               	movwf	(main@mV+2)& (0+255),b
   700  000936  0100               	movlb	0	; () banked
   701  000938  5179               	movf	(main@Vin+3)& (0+255),w,b
   702  00093A  0100               	movlb	0	; () banked
   703  00093C  1180               	iorwf	(main@mV+3)& (0+255),w,b
   704  00093E  0100               	movlb	0	; () banked
   705  000940  6F80               	movwf	(main@mV+3)& (0+255),b
   706                           
   707                           ; BSR set to: 0
   708                           ;newmain.c: 194: mV = (mV/1023.0)*5000;
   709  000942  0E40               	movlw	64
   710  000944  6E32               	movwf	___ftmul@f2,c
   711  000946  0E9C               	movlw	156
   712  000948  6E33               	movwf	___ftmul@f2+1,c
   713  00094A  0E45               	movlw	69
   714  00094C  6E34               	movwf	___ftmul@f2+2,c
   715  00094E  0EC0               	movlw	192
   716  000950  6E23               	movwf	___ftdiv@f2,c
   717  000952  0E7F               	movlw	127
   718  000954  6E24               	movwf	___ftdiv@f2+1,c
   719  000956  0E44               	movlw	68
   720  000958  6E25               	movwf	___ftdiv@f2+2,c
   721  00095A  C07D  F017         	movff	main@mV,___lltoft@c
   722  00095E  C07E  F018         	movff	main@mV+1,___lltoft@c+1
   723  000962  C07F  F019         	movff	main@mV+2,___lltoft@c+2
   724  000966  C080  F01A         	movff	main@mV+3,___lltoft@c+3
   725  00096A  EC06  F009         	call	___lltoft	;wreg free
   726  00096E  C017  F020         	movff	?___lltoft,___ftdiv@f1
   727  000972  C018  F021         	movff	?___lltoft+1,___ftdiv@f1+1
   728  000976  C019  F022         	movff	?___lltoft+2,___ftdiv@f1+2
   729  00097A  EC00  F007         	call	___ftdiv	;wreg free
   730  00097E  C020  F02F         	movff	?___ftdiv,___ftmul@f1
   731  000982  C021  F030         	movff	?___ftdiv+1,___ftmul@f1+1
   732  000986  C022  F031         	movff	?___ftdiv+2,___ftmul@f1+2
   733  00098A  EC11  F006         	call	___ftmul	;wreg free
   734  00098E  C02F  F03E         	movff	?___ftmul,___fttol@f1
   735  000992  C030  F03F         	movff	?___ftmul+1,___fttol@f1+1
   736  000996  C031  F040         	movff	?___ftmul+2,___fttol@f1+2
   737  00099A  EC8D  F006         	call	___fttol	;wreg free
   738  00099E  C03E  F07D         	movff	?___fttol,main@mV
   739  0009A2  C03F  F07E         	movff	?___fttol+1,main@mV+1
   740  0009A6  C040  F07F         	movff	?___fttol+2,main@mV+2
   741  0009AA  C041  F080         	movff	?___fttol+3,main@mV+3
   742                           
   743                           ;newmain.c: 198: D = mV/1000;
   744  0009AE  C07D  F015         	movff	main@mV,___lldiv@dividend
   745  0009B2  C07E  F016         	movff	main@mV+1,___lldiv@dividend+1
   746  0009B6  C07F  F017         	movff	main@mV+2,___lldiv@dividend+2
   747  0009BA  C080  F018         	movff	main@mV+3,___lldiv@dividend+3
   748  0009BE  0EE8               	movlw	232
   749  0009C0  6E19               	movwf	___lldiv@divisor,c
   750  0009C2  0E03               	movlw	3
   751  0009C4  6E1A               	movwf	___lldiv@divisor+1,c
   752  0009C6  0E00               	movlw	0
   753  0009C8  6E1B               	movwf	___lldiv@divisor+2,c
   754  0009CA  0E00               	movlw	0
   755  0009CC  6E1C               	movwf	___lldiv@divisor+3,c
   756  0009CE  EC84  F008         	call	___lldiv	;wreg free
   757  0009D2  5015               	movf	?___lldiv,w,c
   758  0009D4  0100               	movlb	0	; () banked
   759  0009D6  6F7C               	movwf	main@D& (0+255),b
   760                           
   761                           ; BSR set to: 0
   762                           ;newmain.c: 199: LCD_Move(1,6);
   763  0009D8  0E06               	movlw	6
   764  0009DA  6E13               	movwf	LCD_Move@column,c
   765  0009DC  0E01               	movlw	1
   766  0009DE  EC99  F00A         	call	_LCD_Move
   767                           
   768                           ;newmain.c: 200: itoa(op, D, 10);
   769  0009E2  0E6C               	movlw	low main@op
   770  0009E4  6E1F               	movwf	itoa@buf,c
   771  0009E6  0E00               	movlw	high main@op
   772  0009E8  6E20               	movwf	itoa@buf+1,c
   773  0009EA  C07C  F021         	movff	main@D,itoa@val
   774  0009EE  6A22               	clrf	itoa@val+1,c
   775  0009F0  0E00               	movlw	0
   776  0009F2  6E24               	movwf	itoa@base+1,c
   777  0009F4  0E0A               	movlw	10
   778  0009F6  6E23               	movwf	itoa@base,c
   779  0009F8  ECB4  F009         	call	_itoa	;wreg free
   780                           
   781                           ;newmain.c: 201: WriteDataXLCD(op[0]);
   782  0009FC  0100               	movlb	0	; () banked
   783  0009FE  516C               	movf	main@op& (0+255),w,b
   784  000A00  ECD7  F009         	call	_WriteDataXLCD
   785                           
   786                           ;newmain.c: 205: LCD_Move(1,7);
   787  000A04  0E07               	movlw	7
   788  000A06  6E13               	movwf	LCD_Move@column,c
   789  000A08  0E01               	movlw	1
   790  000A0A  EC99  F00A         	call	_LCD_Move
   791                           
   792                           ;newmain.c: 206: WriteDataXLCD('.');
   793  000A0E  0E2E               	movlw	46
   794  000A10  ECD7  F009         	call	_WriteDataXLCD
   795                           
   796                           ;newmain.c: 210: F = (mV - D*1000)/100;
   797  000A14  C07C  F00F         	movff	main@D,___wmul@multiplier
   798  000A18  6A10               	clrf	___wmul@multiplier+1,c
   799  000A1A  0E03               	movlw	3
   800  000A1C  6E12               	movwf	___wmul@multiplicand+1,c
   801  000A1E  0EE8               	movlw	232
   802  000A20  6E11               	movwf	___wmul@multiplicand,c
   803  000A22  EC85  F00A         	call	___wmul	;wreg free
   804  000A26  C00F  F060         	movff	?___wmul,??_main
   805  000A2A  C010  F061         	movff	?___wmul+1,??_main+1
   806  000A2E  0E00               	movlw	0
   807  000A30  0100               	movlb	0	; () banked
   808  000A32  BF61               	btfsc	(??_main+1)& (0+255),7,b
   809  000A34  0EFF               	movlw	255
   810  000A36  6F62               	movwf	(??_main+2)& (0+255),b
   811  000A38  6F63               	movwf	(??_main+3)& (0+255),b
   812  000A3A  0100               	movlb	0	; () banked
   813  000A3C  1F60               	comf	??_main& (0+255),f,b
   814  000A3E  1F61               	comf	(??_main+1)& (0+255),f,b
   815  000A40  1F62               	comf	(??_main+2)& (0+255),f,b
   816  000A42  1F63               	comf	(??_main+3)& (0+255),f,b
   817  000A44  2B60               	incf	??_main& (0+255),f,b
   818  000A46  0E00               	movlw	0
   819  000A48  2361               	addwfc	(??_main+1)& (0+255),f,b
   820  000A4A  2362               	addwfc	(??_main+2)& (0+255),f,b
   821  000A4C  2363               	addwfc	(??_main+3)& (0+255),f,b
   822  000A4E  0100               	movlb	0	; () banked
   823  000A50  517D               	movf	main@mV& (0+255),w,b
   824  000A52  0100               	movlb	0	; () banked
   825  000A54  2560               	addwf	??_main& (0+255),w,b
   826  000A56  6E15               	movwf	___lldiv@dividend,c
   827  000A58  0100               	movlb	0	; () banked
   828  000A5A  517E               	movf	(main@mV+1)& (0+255),w,b
   829  000A5C  0100               	movlb	0	; () banked
   830  000A5E  2161               	addwfc	(??_main+1)& (0+255),w,b
   831  000A60  6E16               	movwf	___lldiv@dividend+1,c
   832  000A62  0100               	movlb	0	; () banked
   833  000A64  517F               	movf	(main@mV+2)& (0+255),w,b
   834  000A66  0100               	movlb	0	; () banked
   835  000A68  2162               	addwfc	(??_main+2)& (0+255),w,b
   836  000A6A  6E17               	movwf	___lldiv@dividend+2,c
   837  000A6C  0100               	movlb	0	; () banked
   838  000A6E  5180               	movf	(main@mV+3)& (0+255),w,b
   839  000A70  0100               	movlb	0	; () banked
   840  000A72  2163               	addwfc	(??_main+3)& (0+255),w,b
   841  000A74  6E18               	movwf	___lldiv@dividend+3,c
   842  000A76  0E64               	movlw	100
   843  000A78  6E19               	movwf	___lldiv@divisor,c
   844  000A7A  0E00               	movlw	0
   845  000A7C  6E1A               	movwf	___lldiv@divisor+1,c
   846  000A7E  0E00               	movlw	0
   847  000A80  6E1B               	movwf	___lldiv@divisor+2,c
   848  000A82  0E00               	movlw	0
   849  000A84  6E1C               	movwf	___lldiv@divisor+3,c
   850  000A86  EC84  F008         	call	___lldiv	;wreg free
   851  000A8A  5015               	movf	?___lldiv,w,c
   852  000A8C  0100               	movlb	0	; () banked
   853  000A8E  6F7A               	movwf	main@F& (0+255),b
   854                           
   855                           ; BSR set to: 0
   856                           ;newmain.c: 211: LCD_Move(1,8);
   857  000A90  0E08               	movlw	8
   858  000A92  6E13               	movwf	LCD_Move@column,c
   859  000A94  0E01               	movlw	1
   860  000A96  EC99  F00A         	call	_LCD_Move
   861                           
   862                           ;newmain.c: 212: itoa(op, F, 10);
   863  000A9A  0E6C               	movlw	low main@op
   864  000A9C  6E1F               	movwf	itoa@buf,c
   865  000A9E  0E00               	movlw	high main@op
   866  000AA0  6E20               	movwf	itoa@buf+1,c
   867  000AA2  C07A  F021         	movff	main@F,itoa@val
   868  000AA6  6A22               	clrf	itoa@val+1,c
   869  000AA8  0E00               	movlw	0
   870  000AAA  6E24               	movwf	itoa@base+1,c
   871  000AAC  0E0A               	movlw	10
   872  000AAE  6E23               	movwf	itoa@base,c
   873  000AB0  ECB4  F009         	call	_itoa	;wreg free
   874                           
   875                           ;newmain.c: 213: WriteDataXLCD(op[0]);
   876  000AB4  0100               	movlb	0	; () banked
   877  000AB6  516C               	movf	main@op& (0+255),w,b
   878  000AB8  ECD7  F009         	call	_WriteDataXLCD
   879                           
   880                           ;newmain.c: 217: S= ((mV - D*1000)-F*100)/10;
   881  000ABC  0100               	movlb	0	; () banked
   882  000ABE  517A               	movf	main@F& (0+255),w,b
   883  000AC0  0D64               	mullw	100
   884  000AC2  CFF3 F060          	movff	prodl,??_main
   885  000AC6  CFF4 F061          	movff	prodh,??_main+1
   886  000ACA  0E00               	movlw	0
   887  000ACC  0100               	movlb	0	; () banked
   888  000ACE  BF61               	btfsc	(??_main+1)& (0+255),7,b
   889  000AD0  0EFF               	movlw	255
   890  000AD2  6F62               	movwf	(??_main+2)& (0+255),b
   891  000AD4  6F63               	movwf	(??_main+3)& (0+255),b
   892  000AD6  C07C  F00F         	movff	main@D,___wmul@multiplier
   893  000ADA  6A10               	clrf	___wmul@multiplier+1,c
   894  000ADC  0E03               	movlw	3
   895  000ADE  6E12               	movwf	___wmul@multiplicand+1,c
   896  000AE0  0EE8               	movlw	232
   897  000AE2  6E11               	movwf	___wmul@multiplicand,c
   898  000AE4  EC85  F00A         	call	___wmul	;wreg free
   899  000AE8  C00F  F064         	movff	?___wmul,??_main+4
   900  000AEC  C010  F065         	movff	?___wmul+1,??_main+5
   901  000AF0  0E00               	movlw	0
   902  000AF2  0100               	movlb	0	; () banked
   903  000AF4  BF65               	btfsc	(??_main+5)& (0+255),7,b
   904  000AF6  0EFF               	movlw	255
   905  000AF8  6F66               	movwf	(??_main+6)& (0+255),b
   906  000AFA  6F67               	movwf	(??_main+7)& (0+255),b
   907  000AFC  0100               	movlb	0	; () banked
   908  000AFE  5160               	movf	??_main& (0+255),w,b
   909  000B00  0100               	movlb	0	; () banked
   910  000B02  2564               	addwf	(??_main+4)& (0+255),w,b
   911  000B04  0100               	movlb	0	; () banked
   912  000B06  6F68               	movwf	(??_main+8)& (0+255),b
   913  000B08  0100               	movlb	0	; () banked
   914  000B0A  5161               	movf	(??_main+1)& (0+255),w,b
   915  000B0C  0100               	movlb	0	; () banked
   916  000B0E  2165               	addwfc	(??_main+5)& (0+255),w,b
   917  000B10  0100               	movlb	0	; () banked
   918  000B12  6F69               	movwf	(??_main+9)& (0+255),b
   919  000B14  0100               	movlb	0	; () banked
   920  000B16  5162               	movf	(??_main+2)& (0+255),w,b
   921  000B18  0100               	movlb	0	; () banked
   922  000B1A  2166               	addwfc	(??_main+6)& (0+255),w,b
   923  000B1C  0100               	movlb	0	; () banked
   924  000B1E  6F6A               	movwf	(??_main+10)& (0+255),b
   925  000B20  0100               	movlb	0	; () banked
   926  000B22  5163               	movf	(??_main+3)& (0+255),w,b
   927  000B24  0100               	movlb	0	; () banked
   928  000B26  2167               	addwfc	(??_main+7)& (0+255),w,b
   929  000B28  0100               	movlb	0	; () banked
   930  000B2A  6F6B               	movwf	(??_main+11)& (0+255),b
   931  000B2C  0100               	movlb	0	; () banked
   932  000B2E  1F68               	comf	(??_main+8)& (0+255),f,b
   933  000B30  1F69               	comf	(??_main+9)& (0+255),f,b
   934  000B32  1F6A               	comf	(??_main+10)& (0+255),f,b
   935  000B34  1F6B               	comf	(??_main+11)& (0+255),f,b
   936  000B36  2B68               	incf	(??_main+8)& (0+255),f,b
   937  000B38  0E00               	movlw	0
   938  000B3A  2369               	addwfc	(??_main+9)& (0+255),f,b
   939  000B3C  236A               	addwfc	(??_main+10)& (0+255),f,b
   940  000B3E  236B               	addwfc	(??_main+11)& (0+255),f,b
   941  000B40  0100               	movlb	0	; () banked
   942  000B42  517D               	movf	main@mV& (0+255),w,b
   943  000B44  0100               	movlb	0	; () banked
   944  000B46  2568               	addwf	(??_main+8)& (0+255),w,b
   945  000B48  6E15               	movwf	___lldiv@dividend,c
   946  000B4A  0100               	movlb	0	; () banked
   947  000B4C  517E               	movf	(main@mV+1)& (0+255),w,b
   948  000B4E  0100               	movlb	0	; () banked
   949  000B50  2169               	addwfc	(??_main+9)& (0+255),w,b
   950  000B52  6E16               	movwf	___lldiv@dividend+1,c
   951  000B54  0100               	movlb	0	; () banked
   952  000B56  517F               	movf	(main@mV+2)& (0+255),w,b
   953  000B58  0100               	movlb	0	; () banked
   954  000B5A  216A               	addwfc	(??_main+10)& (0+255),w,b
   955  000B5C  6E17               	movwf	___lldiv@dividend+2,c
   956  000B5E  0100               	movlb	0	; () banked
   957  000B60  5180               	movf	(main@mV+3)& (0+255),w,b
   958  000B62  0100               	movlb	0	; () banked
   959  000B64  216B               	addwfc	(??_main+11)& (0+255),w,b
   960  000B66  6E18               	movwf	___lldiv@dividend+3,c
   961  000B68  0E0A               	movlw	10
   962  000B6A  6E19               	movwf	___lldiv@divisor,c
   963  000B6C  0E00               	movlw	0
   964  000B6E  6E1A               	movwf	___lldiv@divisor+1,c
   965  000B70  0E00               	movlw	0
   966  000B72  6E1B               	movwf	___lldiv@divisor+2,c
   967  000B74  0E00               	movlw	0
   968  000B76  6E1C               	movwf	___lldiv@divisor+3,c
   969  000B78  EC84  F008         	call	___lldiv	;wreg free
   970  000B7C  5015               	movf	?___lldiv,w,c
   971  000B7E  0100               	movlb	0	; () banked
   972  000B80  6F7B               	movwf	main@S& (0+255),b
   973                           
   974                           ; BSR set to: 0
   975                           ;newmain.c: 218: LCD_Move(1,9);
   976  000B82  0E09               	movlw	9
   977  000B84  6E13               	movwf	LCD_Move@column,c
   978  000B86  0E01               	movlw	1
   979  000B88  EC99  F00A         	call	_LCD_Move
   980                           
   981                           ;newmain.c: 219: itoa(op, S, 10);
   982  000B8C  0E6C               	movlw	low main@op
   983  000B8E  6E1F               	movwf	itoa@buf,c
   984  000B90  0E00               	movlw	high main@op
   985  000B92  6E20               	movwf	itoa@buf+1,c
   986  000B94  C07B  F021         	movff	main@S,itoa@val
   987  000B98  6A22               	clrf	itoa@val+1,c
   988  000B9A  0E00               	movlw	0
   989  000B9C  6E24               	movwf	itoa@base+1,c
   990  000B9E  0E0A               	movlw	10
   991  000BA0  6E23               	movwf	itoa@base,c
   992  000BA2  ECB4  F009         	call	_itoa	;wreg free
   993                           
   994                           ;newmain.c: 220: WriteDataXLCD(op[0]);
   995  000BA6  0100               	movlb	0	; () banked
   996  000BA8  516C               	movf	main@op& (0+255),w,b
   997  000BAA  ECD7  F009         	call	_WriteDataXLCD
   998                           
   999                           ;newmain.c: 222: S= (((mV - D*1000)-F*100)-S*10);
  1000  000BAE  0100               	movlb	0	; () banked
  1001  000BB0  517B               	movf	main@S& (0+255),w,b
  1002  000BB2  0D0A               	mullw	10
  1003  000BB4  CFF3 F060          	movff	prodl,??_main
  1004  000BB8  0100               	movlb	0	; () banked
  1005  000BBA  517A               	movf	main@F& (0+255),w,b
  1006  000BBC  0D64               	mullw	100
  1007  000BBE  CFF3 F061          	movff	prodl,??_main+1
  1008  000BC2  C07C  F00F         	movff	main@D,___wmul@multiplier
  1009  000BC6  6A10               	clrf	___wmul@multiplier+1,c
  1010  000BC8  0E03               	movlw	3
  1011  000BCA  6E12               	movwf	___wmul@multiplicand+1,c
  1012  000BCC  0EE8               	movlw	232
  1013  000BCE  6E11               	movwf	___wmul@multiplicand,c
  1014  000BD0  EC85  F00A         	call	___wmul	;wreg free
  1015  000BD4  500F               	movf	?___wmul,w,c
  1016  000BD6  0100               	movlb	0	; () banked
  1017  000BD8  2561               	addwf	(??_main+1)& (0+255),w,b
  1018  000BDA  0100               	movlb	0	; () banked
  1019  000BDC  2560               	addwf	??_main& (0+255),w,b
  1020  000BDE  0800               	sublw	0
  1021  000BE0  0100               	movlb	0	; () banked
  1022  000BE2  257D               	addwf	main@mV& (0+255),w,b
  1023  000BE4  0100               	movlb	0	; () banked
  1024  000BE6  6F7B               	movwf	main@S& (0+255),b
  1025                           
  1026                           ; BSR set to: 0
  1027                           ;newmain.c: 223: LCD_Move(1,10);
  1028  000BE8  0E0A               	movlw	10
  1029  000BEA  6E13               	movwf	LCD_Move@column,c
  1030  000BEC  0E01               	movlw	1
  1031  000BEE  EC99  F00A         	call	_LCD_Move
  1032                           
  1033                           ;newmain.c: 224: itoa(op, S, 10);
  1034  000BF2  0E6C               	movlw	low main@op
  1035  000BF4  6E1F               	movwf	itoa@buf,c
  1036  000BF6  0E00               	movlw	high main@op
  1037  000BF8  6E20               	movwf	itoa@buf+1,c
  1038  000BFA  C07B  F021         	movff	main@S,itoa@val
  1039  000BFE  6A22               	clrf	itoa@val+1,c
  1040  000C00  0E00               	movlw	0
  1041  000C02  6E24               	movwf	itoa@base+1,c
  1042  000C04  0E0A               	movlw	10
  1043  000C06  6E23               	movwf	itoa@base,c
  1044  000C08  ECB4  F009         	call	_itoa	;wreg free
  1045                           
  1046                           ;newmain.c: 225: WriteDataXLCD(op[0]);
  1047  000C0C  0100               	movlb	0	; () banked
  1048  000C0E  516C               	movf	main@op& (0+255),w,b
  1049  000C10  ECD7  F009         	call	_WriteDataXLCD
  1050                           
  1051                           ;newmain.c: 233: Delay_100ms(1);
  1052  000C14  0E01               	movlw	1
  1053  000C16  EC6B  F00A         	call	_Delay_100ms
  1054                           
  1055                           ;newmain.c: 234: ADCON0bits.GO = 1;
  1056  000C1A  82C2               	bsf	4034,1,c	;volatile
  1057  000C1C  D63F               	goto	l2014
  1058                           
  1059                           ;newmain.c: 236: }
  1060                           ;newmain.c: 239: return 0;
  1061                           ;	Return value of _main is never used
  1062  000C1E  EF0C  F000         	goto	start
  1063  000C22                     __end_of_main:
  1064                           	opt stack 0
  1065                           tblptru	equ	0xFF8
  1066                           tblptrh	equ	0xFF7
  1067                           prodh	equ	0xFF4
  1068                           prodl	equ	0xFF3
  1069                           intcon	equ	0xFF2
  1070                           status	equ	0xFD8
  1071                           
  1072 ;; *************** function _putrsXLCD *****************
  1073 ;; Defined at:
  1074 ;;		line 16 in file "C:\Program Files (x86)\Microchip\xc8\v1.34\sources\pic18\plib\XLCD\putrxlcd.c"
  1075 ;; Parameters:    Size  Location     Type
  1076 ;;  buffer          2   15[COMRAM] PTR const unsigned char 
  1077 ;;		 -> STR_2(3), STR_1(10), 
  1078 ;; Auto vars:     Size  Location     Type
  1079 ;;		None
  1080 ;; Return value:  Size  Location     Type
  1081 ;;		None               void
  1082 ;; Registers used:
  1083 ;;		wreg, status,2, status,0, tblptrl, tblptrh, tblptru, cstack
  1084 ;; Tracked objects:
  1085 ;;		On entry : 0/0
  1086 ;;		On exit  : 0/0
  1087 ;;		Unchanged: 0/0
  1088 ;; Data sizes:     COMRAM   BANK0   BANK1   BANK2   BANK3   BANK4   BANK5   BANK6   BANK7
  1089 ;;      Params:         2       0       0       0       0       0       0       0       0
  1090 ;;      Locals:         0       0       0       0       0       0       0       0       0
  1091 ;;      Temps:          0       0       0       0       0       0       0       0       0
  1092 ;;      Totals:         2       0       0       0       0       0       0       0       0
  1093 ;;Total ram usage:        2 bytes
  1094 ;; Hardware stack levels used:    1
  1095 ;; Hardware stack levels required when called:    3
  1096 ;; This function calls:
  1097 ;;		_BusyXLCD
  1098 ;;		_WriteDataXLCD
  1099 ;; This function is called by:
  1100 ;;		_main
  1101 ;; This function uses a non-reentrant model
  1102 ;;
  1103                           
  1104                           	psect	text1
  1105  00146A                     __ptext1:
  1106                           	opt stack 0
  1107  00146A                     _putrsXLCD:
  1108                           	opt stack 27
  1109                           
  1110                           ;incstack = 0
  1111  00146A  D011               	goto	l1766
  1112  00146C  D000               	goto	l1760
  1113  00146E                     l1760:
  1114  00146E  EC17  F00A         	call	_BusyXLCD	;wreg free
  1115  001472  0900               	iorlw	0
  1116  001474  A4D8               	btfss	status,2,c
  1117  001476  D7FB               	goto	l1760
  1118  001478  C010  FFF6         	movff	putrsXLCD@buffer,tblptrl
  1119  00147C  C011  FFF7         	movff	putrsXLCD@buffer+1,tblptrh
  1120  001480                     	if	0	;tblptru may be non-zero
  1121  001480                     	endif
  1122  001480                     	if	0	;tblptru may be non-zero
  1123  001480                     	endif
  1124  001480  0008               	tblrd		*
  1125  001482  50F5               	movf	tablat,w,c
  1126  001484  ECD7  F009         	call	_WriteDataXLCD
  1127  001488  4A10               	infsnz	putrsXLCD@buffer,f,c
  1128  00148A  2A11               	incf	putrsXLCD@buffer+1,f,c
  1129  00148C  D000               	goto	l1766
  1130  00148E                     l1766:
  1131  00148E  C010  FFF6         	movff	putrsXLCD@buffer,tblptrl
  1132  001492  C011  FFF7         	movff	putrsXLCD@buffer+1,tblptrh
  1133  001496                     	if	0	;tblptru may be non-zero
  1134  001496                     	endif
  1135  001496                     	if	0	;tblptru may be non-zero
  1136  001496                     	endif
  1137  001496  0008               	tblrd		*
  1138  001498  50F5               	movf	tablat,w,c
  1139  00149A  0900               	iorlw	0
  1140  00149C  A4D8               	btfss	status,2,c
  1141  00149E  D7E7               	goto	l1760
  1142  0014A0  0012               	return		;funcret
  1143  0014A2                     __end_of_putrsXLCD:
  1144                           	opt stack 0
  1145                           tblptru	equ	0xFF8
  1146                           tblptrh	equ	0xFF7
  1147                           tblptrl	equ	0xFF6
  1148                           tablat	equ	0xFF5
  1149                           prodh	equ	0xFF4
  1150                           prodl	equ	0xFF3
  1151                           intcon	equ	0xFF2
  1152                           status	equ	0xFD8
  1153                           
  1154 ;; *************** function _WriteDataXLCD *****************
  1155 ;; Defined at:
  1156 ;;		line 16 in file "C:\Program Files (x86)\Microchip\xc8\v1.34\sources\pic18\plib\XLCD\writdata.c"
  1157 ;; Parameters:    Size  Location     Type
  1158 ;;  data            1    wreg     unsigned char 
  1159 ;; Auto vars:     Size  Location     Type
  1160 ;;  data            1   14[COMRAM] unsigned char 
  1161 ;; Return value:  Size  Location     Type
  1162 ;;		None               void
  1163 ;; Registers used:
  1164 ;;		wreg, status,2, status,0, cstack
  1165 ;; Tracked objects:
  1166 ;;		On entry : 0/0
  1167 ;;		On exit  : 0/0
  1168 ;;		Unchanged: 0/0
  1169 ;; Data sizes:     COMRAM   BANK0   BANK1   BANK2   BANK3   BANK4   BANK5   BANK6   BANK7
  1170 ;;      Params:         0       0       0       0       0       0       0       0       0
  1171 ;;      Locals:         1       0       0       0       0       0       0       0       0
  1172 ;;      Temps:          0       0       0       0       0       0       0       0       0
  1173 ;;      Totals:         1       0       0       0       0       0       0       0       0
  1174 ;;Total ram usage:        1 bytes
  1175 ;; Hardware stack levels used:    1
  1176 ;; Hardware stack levels required when called:    2
  1177 ;; This function calls:
  1178 ;;		_DelayFor18TCY
  1179 ;; This function is called by:
  1180 ;;		_main
  1181 ;;		_putrsXLCD
  1182 ;; This function uses a non-reentrant model
  1183 ;;
  1184                           
  1185                           	psect	text2
  1186  0013AE                     __ptext2:
  1187                           	opt stack 0
  1188  0013AE                     _WriteDataXLCD:
  1189                           	opt stack 27
  1190                           
  1191                           ;incstack = 0
  1192                           ;WriteDataXLCD@data stored from wreg
  1193  0013AE  6E0F               	movwf	WriteDataXLCD@data,c
  1194  0013B0  0EF0               	movlw	240
  1195  0013B2  1693               	andwf	3987,f,c	;volatile
  1196  0013B4  0EF0               	movlw	240
  1197  0013B6  1681               	andwf	3969,f,c	;volatile
  1198  0013B8  380F               	swapf	WriteDataXLCD@data,w,c
  1199  0013BA  0B0F               	andlw	15
  1200  0013BC  0B0F               	andlw	15
  1201  0013BE  1281               	iorwf	3969,f,c	;volatile
  1202  0013C0  8A8A               	bsf	3978,5,c	;volatile
  1203  0013C2  9C8A               	bcf	3978,6,c	;volatile
  1204  0013C4  ECA9  F00A         	call	_DelayFor18TCY	;wreg free
  1205  0013C8  888A               	bsf	3978,4,c	;volatile
  1206  0013CA  ECA9  F00A         	call	_DelayFor18TCY	;wreg free
  1207  0013CE  988A               	bcf	3978,4,c	;volatile
  1208  0013D0  0EF0               	movlw	240
  1209  0013D2  1681               	andwf	3969,f,c	;volatile
  1210  0013D4  500F               	movf	WriteDataXLCD@data,w,c
  1211  0013D6  0B0F               	andlw	15
  1212  0013D8  1281               	iorwf	3969,f,c	;volatile
  1213  0013DA  ECA9  F00A         	call	_DelayFor18TCY	;wreg free
  1214  0013DE  888A               	bsf	3978,4,c	;volatile
  1215  0013E0  ECA9  F00A         	call	_DelayFor18TCY	;wreg free
  1216  0013E4  988A               	bcf	3978,4,c	;volatile
  1217  0013E6  0E0F               	movlw	15
  1218  0013E8  1293               	iorwf	3987,f,c	;volatile
  1219  0013EA  D000               	goto	l195
  1220  0013EC                     l195:
  1221  0013EC  0012               	return		;funcret
  1222  0013EE                     __end_of_WriteDataXLCD:
  1223                           	opt stack 0
  1224                           tblptru	equ	0xFF8
  1225                           tblptrh	equ	0xFF7
  1226                           tblptrl	equ	0xFF6
  1227                           tablat	equ	0xFF5
  1228                           prodh	equ	0xFF4
  1229                           prodl	equ	0xFF3
  1230                           intcon	equ	0xFF2
  1231                           status	equ	0xFD8
  1232                           
  1233 ;; *************** function _itoa *****************
  1234 ;; Defined at:
  1235 ;;		line 4 in file "C:\Program Files (x86)\Microchip\xc8\v1.34\sources\common\itoa.c"
  1236 ;; Parameters:    Size  Location     Type
  1237 ;;  buf             2   30[COMRAM] PTR unsigned char 
  1238 ;;		 -> main@op(10), 
  1239 ;;  val             2   32[COMRAM] int 
  1240 ;;  base            2   34[COMRAM] int 
  1241 ;; Auto vars:     Size  Location     Type
  1242 ;;  cp              2   36[COMRAM] PTR unsigned char 
  1243 ;;		 -> main@op(10), 
  1244 ;; Return value:  Size  Location     Type
  1245 ;;                  2   30[COMRAM] PTR unsigned char 
  1246 ;; Registers used:
  1247 ;;		wreg, fsr2l, fsr2h, status,2, status,0, cstack
  1248 ;; Tracked objects:
  1249 ;;		On entry : 0/0
  1250 ;;		On exit  : 0/0
  1251 ;;		Unchanged: 0/0
  1252 ;; Data sizes:     COMRAM   BANK0   BANK1   BANK2   BANK3   BANK4   BANK5   BANK6   BANK7
  1253 ;;      Params:         6       0       0       0       0       0       0       0       0
  1254 ;;      Locals:         2       0       0       0       0       0       0       0       0
  1255 ;;      Temps:          0       0       0       0       0       0       0       0       0
  1256 ;;      Totals:         8       0       0       0       0       0       0       0       0
  1257 ;;Total ram usage:        8 bytes
  1258 ;; Hardware stack levels used:    1
  1259 ;; Hardware stack levels required when called:    3
  1260 ;; This function calls:
  1261 ;;		_utoa
  1262 ;; This function is called by:
  1263 ;;		_main
  1264 ;; This function uses a non-reentrant model
  1265 ;;
  1266                           
  1267                           	psect	text3
  1268  001368                     __ptext3:
  1269                           	opt stack 0
  1270  001368                     _itoa:
  1271                           	opt stack 27
  1272                           
  1273                           ;incstack = 0
  1274  001368  C01F  F025         	movff	itoa@buf,itoa@cp
  1275  00136C  C020  F026         	movff	itoa@buf+1,itoa@cp+1
  1276  001370  AE22               	btfss	itoa@val+1,7,c
  1277  001372  D00D               	goto	l1776
  1278  001374  C01F  FFD9         	movff	itoa@buf,fsr2l
  1279  001378  C020  FFDA         	movff	itoa@buf+1,fsr2h
  1280  00137C  0E2D               	movlw	45
  1281  00137E  6EDF               	movwf	indf2,c
  1282  001380  4A1F               	infsnz	itoa@buf,f,c
  1283  001382  2A20               	incf	itoa@buf+1,f,c
  1284  001384  6C21               	negf	itoa@val,c
  1285  001386  1E22               	comf	itoa@val+1,f,c
  1286  001388  B0D8               	btfsc	status,0,c
  1287  00138A  2A22               	incf	itoa@val+1,f,c
  1288  00138C  D000               	goto	l1776
  1289  00138E                     l1776:
  1290  00138E  C01F  F016         	movff	itoa@buf,utoa@buf
  1291  001392  C020  F017         	movff	itoa@buf+1,utoa@buf+1
  1292  001396  C021  F018         	movff	itoa@val,utoa@val
  1293  00139A  C022  F019         	movff	itoa@val+1,utoa@val+1
  1294  00139E  C023  F01A         	movff	itoa@base,utoa@base
  1295  0013A2  C024  F01B         	movff	itoa@base+1,utoa@base+1
  1296  0013A6  EC2F  F008         	call	_utoa	;wreg free
  1297  0013AA  D000               	goto	l637
  1298  0013AC                     l637:
  1299  0013AC  0012               	return		;funcret
  1300  0013AE                     __end_of_itoa:
  1301                           	opt stack 0
  1302                           tblptru	equ	0xFF8
  1303                           tblptrh	equ	0xFF7
  1304                           tblptrl	equ	0xFF6
  1305                           tablat	equ	0xFF5
  1306                           prodh	equ	0xFF4
  1307                           prodl	equ	0xFF3
  1308                           intcon	equ	0xFF2
  1309                           indf2	equ	0xFDF
  1310                           fsr2h	equ	0xFDA
  1311                           fsr2l	equ	0xFD9
  1312                           status	equ	0xFD8
  1313                           
  1314 ;; *************** function _utoa *****************
  1315 ;; Defined at:
  1316 ;;		line 17 in file "C:\Program Files (x86)\Microchip\xc8\v1.34\sources\common\itoa.c"
  1317 ;; Parameters:    Size  Location     Type
  1318 ;;  buf             2   21[COMRAM] PTR unsigned char 
  1319 ;;		 -> main@op(10), 
  1320 ;;  val             2   23[COMRAM] unsigned int 
  1321 ;;  base            2   25[COMRAM] int 
  1322 ;; Auto vars:     Size  Location     Type
  1323 ;;  v               2   27[COMRAM] unsigned int 
  1324 ;;  c               1   29[COMRAM] unsigned char 
  1325 ;; Return value:  Size  Location     Type
  1326 ;;                  2   21[COMRAM] PTR unsigned char 
  1327 ;; Registers used:
  1328 ;;		wreg, fsr2l, fsr2h, status,2, status,0, cstack
  1329 ;; Tracked objects:
  1330 ;;		On entry : 0/0
  1331 ;;		On exit  : 0/0
  1332 ;;		Unchanged: 0/0
  1333 ;; Data sizes:     COMRAM   BANK0   BANK1   BANK2   BANK3   BANK4   BANK5   BANK6   BANK7
  1334 ;;      Params:         6       0       0       0       0       0       0       0       0
  1335 ;;      Locals:         3       0       0       0       0       0       0       0       0
  1336 ;;      Temps:          0       0       0       0       0       0       0       0       0
  1337 ;;      Totals:         9       0       0       0       0       0       0       0       0
  1338 ;;Total ram usage:        9 bytes
  1339 ;; Hardware stack levels used:    1
  1340 ;; Hardware stack levels required when called:    2
  1341 ;; This function calls:
  1342 ;;		___lwdiv
  1343 ;;		___lwmod
  1344 ;; This function is called by:
  1345 ;;		_itoa
  1346 ;; This function uses a non-reentrant model
  1347 ;;
  1348                           
  1349                           	psect	text4
  1350  00105E                     __ptext4:
  1351                           	opt stack 0
  1352  00105E                     _utoa:
  1353                           	opt stack 27
  1354                           
  1355                           ;incstack = 0
  1356  00105E  C018  F01C         	movff	utoa@val,utoa@v
  1357  001062  C019  F01D         	movff	utoa@val+1,utoa@v+1
  1358  001066  D000               	goto	l1632
  1359  001068                     l1632:
  1360  001068  C01C  F00F         	movff	utoa@v,___lwdiv@dividend
  1361  00106C  C01D  F010         	movff	utoa@v+1,___lwdiv@dividend+1
  1362  001070  C01A  F011         	movff	utoa@base,___lwdiv@divisor
  1363  001074  C01B  F012         	movff	utoa@base+1,___lwdiv@divisor+1
  1364  001078  EC36  F009         	call	___lwdiv	;wreg free
  1365  00107C  C00F  F01C         	movff	?___lwdiv,utoa@v
  1366  001080  C010  F01D         	movff	?___lwdiv+1,utoa@v+1
  1367  001084  4A16               	infsnz	utoa@buf,f,c
  1368  001086  2A17               	incf	utoa@buf+1,f,c
  1369  001088  501C               	movf	utoa@v,w,c
  1370  00108A  101D               	iorwf	utoa@v+1,w,c
  1371  00108C  A4D8               	btfss	status,2,c
  1372  00108E  D7EC               	goto	l1632
  1373  001090  C016  FFD9         	movff	utoa@buf,fsr2l
  1374  001094  C017  FFDA         	movff	utoa@buf+1,fsr2h
  1375  001098  0E00               	movlw	0
  1376  00109A  6EDF               	movwf	indf2,c
  1377  00109C  0616               	decf	utoa@buf,f,c
  1378  00109E  A0D8               	btfss	status,0,c
  1379  0010A0  0617               	decf	utoa@buf+1,f,c
  1380  0010A2  D000               	goto	l1642
  1381  0010A4                     l1642:
  1382  0010A4  C018  F00F         	movff	utoa@val,___lwmod@dividend
  1383  0010A8  C019  F010         	movff	utoa@val+1,___lwmod@dividend+1
  1384  0010AC  C01A  F011         	movff	utoa@base,___lwmod@divisor
  1385  0010B0  C01B  F012         	movff	utoa@base+1,___lwmod@divisor+1
  1386  0010B4  EC8E  F009         	call	___lwmod	;wreg free
  1387  0010B8  500F               	movf	?___lwmod,w,c
  1388  0010BA  6E1E               	movwf	utoa@c,c
  1389  0010BC  C018  F00F         	movff	utoa@val,___lwdiv@dividend
  1390  0010C0  C019  F010         	movff	utoa@val+1,___lwdiv@dividend+1
  1391  0010C4  C01A  F011         	movff	utoa@base,___lwdiv@divisor
  1392  0010C8  C01B  F012         	movff	utoa@base+1,___lwdiv@divisor+1
  1393  0010CC  EC36  F009         	call	___lwdiv	;wreg free
  1394  0010D0  C00F  F018         	movff	?___lwdiv,utoa@val
  1395  0010D4  C010  F019         	movff	?___lwdiv+1,utoa@val+1
  1396  0010D8  0E09               	movlw	9
  1397  0010DA  641E               	cpfsgt	utoa@c,c
  1398  0010DC  D002               	goto	l643
  1399  0010DE  0E07               	movlw	7
  1400  0010E0  261E               	addwf	utoa@c,f,c
  1401  0010E2                     l643:
  1402  0010E2  0E30               	movlw	48
  1403  0010E4  261E               	addwf	utoa@c,f,c
  1404  0010E6  C016  FFD9         	movff	utoa@buf,fsr2l
  1405  0010EA  C017  FFDA         	movff	utoa@buf+1,fsr2h
  1406  0010EE  C01E  FFDF         	movff	utoa@c,indf2
  1407  0010F2  0616               	decf	utoa@buf,f,c
  1408  0010F4  A0D8               	btfss	status,0,c
  1409  0010F6  0617               	decf	utoa@buf+1,f,c
  1410  0010F8  5018               	movf	utoa@val,w,c
  1411  0010FA  1019               	iorwf	utoa@val+1,w,c
  1412  0010FC  A4D8               	btfss	status,2,c
  1413  0010FE  D7D2               	goto	l1642
  1414                           
  1415                           ;	Return value of _utoa is never used
  1416  001100  4A16               	infsnz	utoa@buf,f,c
  1417  001102  2A17               	incf	utoa@buf+1,f,c
  1418  001104  D000               	goto	l645
  1419  001106                     l645:
  1420  001106  0012               	return		;funcret
  1421  001108                     __end_of_utoa:
  1422                           	opt stack 0
  1423                           tblptru	equ	0xFF8
  1424                           tblptrh	equ	0xFF7
  1425                           tblptrl	equ	0xFF6
  1426                           tablat	equ	0xFF5
  1427                           prodh	equ	0xFF4
  1428                           prodl	equ	0xFF3
  1429                           intcon	equ	0xFF2
  1430                           indf2	equ	0xFDF
  1431                           fsr2h	equ	0xFDA
  1432                           fsr2l	equ	0xFD9
  1433                           status	equ	0xFD8
  1434                           
  1435 ;; *************** function ___lwmod *****************
  1436 ;; Defined at:
  1437 ;;		line 8 in file "C:\Program Files (x86)\Microchip\xc8\v1.34\sources\common\lwmod.c"
  1438 ;; Parameters:    Size  Location     Type
  1439 ;;  dividend        2   14[COMRAM] unsigned int 
  1440 ;;  divisor         2   16[COMRAM] unsigned int 
  1441 ;; Auto vars:     Size  Location     Type
  1442 ;;  counter         1   18[COMRAM] unsigned char 
  1443 ;; Return value:  Size  Location     Type
  1444 ;;                  2   14[COMRAM] unsigned int 
  1445 ;; Registers used:
  1446 ;;		wreg, status,2, status,0
  1447 ;; Tracked objects:
  1448 ;;		On entry : 0/0
  1449 ;;		On exit  : 0/0
  1450 ;;		Unchanged: 0/0
  1451 ;; Data sizes:     COMRAM   BANK0   BANK1   BANK2   BANK3   BANK4   BANK5   BANK6   BANK7
  1452 ;;      Params:         4       0       0       0       0       0       0       0       0
  1453 ;;      Locals:         1       0       0       0       0       0       0       0       0
  1454 ;;      Temps:          0       0       0       0       0       0       0       0       0
  1455 ;;      Totals:         5       0       0       0       0       0       0       0       0
  1456 ;;Total ram usage:        5 bytes
  1457 ;; Hardware stack levels used:    1
  1458 ;; Hardware stack levels required when called:    1
  1459 ;; This function calls:
  1460 ;;		Nothing
  1461 ;; This function is called by:
  1462 ;;		_utoa
  1463 ;; This function uses a non-reentrant model
  1464 ;;
  1465                           
  1466                           	psect	text5
  1467  00131C                     __ptext5:
  1468                           	opt stack 0
  1469  00131C                     ___lwmod:
  1470                           	opt stack 27
  1471                           
  1472                           ;incstack = 0
  1473  00131C  5011               	movf	___lwmod@divisor,w,c
  1474  00131E  1012               	iorwf	___lwmod@divisor+1,w,c
  1475  001320  B4D8               	btfsc	status,2,c
  1476  001322  D01D               	goto	l747
  1477  001324  0E01               	movlw	1
  1478  001326  6E13               	movwf	___lwmod@counter,c
  1479  001328  D005               	goto	l1468
  1480  00132A                     l1466:
  1481  00132A  90D8               	bcf	status,0,c
  1482  00132C  3611               	rlcf	___lwmod@divisor,f,c
  1483  00132E  3612               	rlcf	___lwmod@divisor+1,f,c
  1484  001330  2A13               	incf	___lwmod@counter,f,c
  1485  001332  D000               	goto	l1468
  1486  001334                     l1468:
  1487  001334  BE12               	btfsc	___lwmod@divisor+1,7,c
  1488  001336  D002               	goto	l1470
  1489  001338  D7F8               	goto	l1466
  1490  00133A  D000               	goto	l1470
  1491  00133C                     l1470:
  1492  00133C  5011               	movf	___lwmod@divisor,w,c
  1493  00133E  5C0F               	subwf	___lwmod@dividend,w,c
  1494  001340  5012               	movf	___lwmod@divisor+1,w,c
  1495  001342  5810               	subwfb	___lwmod@dividend+1,w,c
  1496  001344  A0D8               	btfss	status,0,c
  1497  001346  D005               	goto	l1474
  1498  001348  5011               	movf	___lwmod@divisor,w,c
  1499  00134A  5E0F               	subwf	___lwmod@dividend,f,c
  1500  00134C  5012               	movf	___lwmod@divisor+1,w,c
  1501  00134E  5A10               	subwfb	___lwmod@dividend+1,f,c
  1502  001350  D000               	goto	l1474
  1503  001352                     l1474:
  1504  001352  90D8               	bcf	status,0,c
  1505  001354  3212               	rrcf	___lwmod@divisor+1,f,c
  1506  001356  3211               	rrcf	___lwmod@divisor,f,c
  1507  001358  2E13               	decfsz	___lwmod@counter,f,c
  1508  00135A  D7F0               	goto	l1470
  1509  00135C  D000               	goto	l747
  1510  00135E                     l747:
  1511  00135E  C00F  F00F         	movff	___lwmod@dividend,?___lwmod
  1512  001362  C010  F010         	movff	___lwmod@dividend+1,?___lwmod+1
  1513  001366  0012               	return		;funcret
  1514  001368                     __end_of___lwmod:
  1515                           	opt stack 0
  1516                           tblptru	equ	0xFF8
  1517                           tblptrh	equ	0xFF7
  1518                           tblptrl	equ	0xFF6
  1519                           tablat	equ	0xFF5
  1520                           prodh	equ	0xFF4
  1521                           prodl	equ	0xFF3
  1522                           intcon	equ	0xFF2
  1523                           indf2	equ	0xFDF
  1524                           fsr2h	equ	0xFDA
  1525                           fsr2l	equ	0xFD9
  1526                           status	equ	0xFD8
  1527                           
  1528 ;; *************** function ___lwdiv *****************
  1529 ;; Defined at:
  1530 ;;		line 8 in file "C:\Program Files (x86)\Microchip\xc8\v1.34\sources\common\lwdiv.c"
  1531 ;; Parameters:    Size  Location     Type
  1532 ;;  dividend        2   14[COMRAM] unsigned int 
  1533 ;;  divisor         2   16[COMRAM] unsigned int 
  1534 ;; Auto vars:     Size  Location     Type
  1535 ;;  quotient        2   18[COMRAM] unsigned int 
  1536 ;;  counter         1   20[COMRAM] unsigned char 
  1537 ;; Return value:  Size  Location     Type
  1538 ;;                  2   14[COMRAM] unsigned int 
  1539 ;; Registers used:
  1540 ;;		wreg, status,2, status,0
  1541 ;; Tracked objects:
  1542 ;;		On entry : 0/0
  1543 ;;		On exit  : 0/0
  1544 ;;		Unchanged: 0/0
  1545 ;; Data sizes:     COMRAM   BANK0   BANK1   BANK2   BANK3   BANK4   BANK5   BANK6   BANK7
  1546 ;;      Params:         4       0       0       0       0       0       0       0       0
  1547 ;;      Locals:         3       0       0       0       0       0       0       0       0
  1548 ;;      Temps:          0       0       0       0       0       0       0       0       0
  1549 ;;      Totals:         7       0       0       0       0       0       0       0       0
  1550 ;;Total ram usage:        7 bytes
  1551 ;; Hardware stack levels used:    1
  1552 ;; Hardware stack levels required when called:    1
  1553 ;; This function calls:
  1554 ;;		Nothing
  1555 ;; This function is called by:
  1556 ;;		_utoa
  1557 ;; This function uses a non-reentrant model
  1558 ;;
  1559                           
  1560                           	psect	text6
  1561  00126C                     __ptext6:
  1562                           	opt stack 0
  1563  00126C                     ___lwdiv:
  1564                           	opt stack 27
  1565                           
  1566                           ;incstack = 0
  1567  00126C  0E00               	movlw	0
  1568  00126E  6E14               	movwf	___lwdiv@quotient+1,c
  1569  001270  0E00               	movlw	0
  1570  001272  6E13               	movwf	___lwdiv@quotient,c
  1571  001274  5011               	movf	___lwdiv@divisor,w,c
  1572  001276  1012               	iorwf	___lwdiv@divisor+1,w,c
  1573  001278  B4D8               	btfsc	status,2,c
  1574  00127A  D021               	goto	l737
  1575  00127C  0E01               	movlw	1
  1576  00127E  6E15               	movwf	___lwdiv@counter,c
  1577  001280  D005               	goto	l1448
  1578  001282                     l1446:
  1579  001282  90D8               	bcf	status,0,c
  1580  001284  3611               	rlcf	___lwdiv@divisor,f,c
  1581  001286  3612               	rlcf	___lwdiv@divisor+1,f,c
  1582  001288  2A15               	incf	___lwdiv@counter,f,c
  1583  00128A  D000               	goto	l1448
  1584  00128C                     l1448:
  1585  00128C  BE12               	btfsc	___lwdiv@divisor+1,7,c
  1586  00128E  D002               	goto	l1450
  1587  001290  D7F8               	goto	l1446
  1588  001292  D000               	goto	l1450
  1589  001294                     l1450:
  1590  001294  90D8               	bcf	status,0,c
  1591  001296  3613               	rlcf	___lwdiv@quotient,f,c
  1592  001298  3614               	rlcf	___lwdiv@quotient+1,f,c
  1593  00129A  5011               	movf	___lwdiv@divisor,w,c
  1594  00129C  5C0F               	subwf	___lwdiv@dividend,w,c
  1595  00129E  5012               	movf	___lwdiv@divisor+1,w,c
  1596  0012A0  5810               	subwfb	___lwdiv@dividend+1,w,c
  1597  0012A2  A0D8               	btfss	status,0,c
  1598  0012A4  D006               	goto	l1458
  1599  0012A6  5011               	movf	___lwdiv@divisor,w,c
  1600  0012A8  5E0F               	subwf	___lwdiv@dividend,f,c
  1601  0012AA  5012               	movf	___lwdiv@divisor+1,w,c
  1602  0012AC  5A10               	subwfb	___lwdiv@dividend+1,f,c
  1603  0012AE  8013               	bsf	___lwdiv@quotient,0,c
  1604  0012B0  D000               	goto	l1458
  1605  0012B2                     l1458:
  1606  0012B2  90D8               	bcf	status,0,c
  1607  0012B4  3212               	rrcf	___lwdiv@divisor+1,f,c
  1608  0012B6  3211               	rrcf	___lwdiv@divisor,f,c
  1609  0012B8  2E15               	decfsz	___lwdiv@counter,f,c
  1610  0012BA  D7EC               	goto	l1450
  1611  0012BC  D000               	goto	l737
  1612  0012BE                     l737:
  1613  0012BE  C013  F00F         	movff	___lwdiv@quotient,?___lwdiv
  1614  0012C2  C014  F010         	movff	___lwdiv@quotient+1,?___lwdiv+1
  1615  0012C6  0012               	return		;funcret
  1616  0012C8                     __end_of___lwdiv:
  1617                           	opt stack 0
  1618                           tblptru	equ	0xFF8
  1619                           tblptrh	equ	0xFF7
  1620                           tblptrl	equ	0xFF6
  1621                           tablat	equ	0xFF5
  1622                           prodh	equ	0xFF4
  1623                           prodl	equ	0xFF3
  1624                           intcon	equ	0xFF2
  1625                           indf2	equ	0xFDF
  1626                           fsr2h	equ	0xFDA
  1627                           fsr2l	equ	0xFD9
  1628                           status	equ	0xFD8
  1629                           
  1630 ;; *************** function ___wmul *****************
  1631 ;; Defined at:
  1632 ;;		line 15 in file "C:\Program Files (x86)\Microchip\xc8\v1.34\sources\common\Umul16.c"
  1633 ;; Parameters:    Size  Location     Type
  1634 ;;  multiplier      2   14[COMRAM] unsigned int 
  1635 ;;  multiplicand    2   16[COMRAM] unsigned int 
  1636 ;; Auto vars:     Size  Location     Type
  1637 ;;  product         2   18[COMRAM] unsigned int 
  1638 ;; Return value:  Size  Location     Type
  1639 ;;                  2   14[COMRAM] unsigned int 
  1640 ;; Registers used:
  1641 ;;		wreg, status,2, status,0, prodl, prodh
  1642 ;; Tracked objects:
  1643 ;;		On entry : 0/0
  1644 ;;		On exit  : 0/0
  1645 ;;		Unchanged: 0/0
  1646 ;; Data sizes:     COMRAM   BANK0   BANK1   BANK2   BANK3   BANK4   BANK5   BANK6   BANK7
  1647 ;;      Params:         4       0       0       0       0       0       0       0       0
  1648 ;;      Locals:         2       0       0       0       0       0       0       0       0
  1649 ;;      Temps:          0       0       0       0       0       0       0       0       0
  1650 ;;      Totals:         6       0       0       0       0       0       0       0       0
  1651 ;;Total ram usage:        6 bytes
  1652 ;; Hardware stack levels used:    1
  1653 ;; Hardware stack levels required when called:    1
  1654 ;; This function calls:
  1655 ;;		Nothing
  1656 ;; This function is called by:
  1657 ;;		_main
  1658 ;; This function uses a non-reentrant model
  1659 ;;
  1660                           
  1661                           	psect	text7
  1662  00150A                     __ptext7:
  1663                           	opt stack 0
  1664  00150A                     ___wmul:
  1665                           	opt stack 29
  1666                           
  1667                           ;incstack = 0
  1668  00150A  500F               	movf	___wmul@multiplier,w,c
  1669  00150C  0211               	mulwf	___wmul@multiplicand,c
  1670  00150E  CFF3 F013          	movff	prodl,___wmul@product
  1671  001512  CFF4 F014          	movff	prodh,___wmul@product+1
  1672  001516  500F               	movf	___wmul@multiplier,w,c
  1673  001518  0212               	mulwf	___wmul@multiplicand+1,c
  1674  00151A  50F3               	movf	prodl,w,c
  1675  00151C  2614               	addwf	___wmul@product+1,f,c
  1676  00151E  5010               	movf	___wmul@multiplier+1,w,c
  1677  001520  0211               	mulwf	___wmul@multiplicand,c
  1678  001522  50F3               	movf	prodl,w,c
  1679  001524  2614               	addwf	___wmul@product+1,f,c
  1680  001526  C013  F00F         	movff	___wmul@product,?___wmul
  1681  00152A  C014  F010         	movff	___wmul@product+1,?___wmul+1
  1682  00152E  D000               	goto	l198
  1683  001530                     l198:
  1684  001530  0012               	return		;funcret
  1685  001532                     __end_of___wmul:
  1686                           	opt stack 0
  1687                           tblptru	equ	0xFF8
  1688                           tblptrh	equ	0xFF7
  1689                           tblptrl	equ	0xFF6
  1690                           tablat	equ	0xFF5
  1691                           prodh	equ	0xFF4
  1692                           prodl	equ	0xFF3
  1693                           intcon	equ	0xFF2
  1694                           indf2	equ	0xFDF
  1695                           fsr2h	equ	0xFDA
  1696                           fsr2l	equ	0xFD9
  1697                           status	equ	0xFD8
  1698                           
  1699 ;; *************** function ___lltoft *****************
  1700 ;; Defined at:
  1701 ;;		line 35 in file "C:\Program Files (x86)\Microchip\xc8\v1.34\sources\common\lltoft.c"
  1702 ;; Parameters:    Size  Location     Type
  1703 ;;  c               4   22[COMRAM] unsigned long 
  1704 ;; Auto vars:     Size  Location     Type
  1705 ;;  exp             1   30[COMRAM] unsigned char 
  1706 ;; Return value:  Size  Location     Type
  1707 ;;                  3   22[COMRAM] float 
  1708 ;; Registers used:
  1709 ;;		wreg, status,2, status,0, cstack
  1710 ;; Tracked objects:
  1711 ;;		On entry : 0/0
  1712 ;;		On exit  : 0/0
  1713 ;;		Unchanged: 0/0
  1714 ;; Data sizes:     COMRAM   BANK0   BANK1   BANK2   BANK3   BANK4   BANK5   BANK6   BANK7
  1715 ;;      Params:         4       0       0       0       0       0       0       0       0
  1716 ;;      Locals:         1       0       0       0       0       0       0       0       0
  1717 ;;      Temps:          4       0       0       0       0       0       0       0       0
  1718 ;;      Totals:         9       0       0       0       0       0       0       0       0
  1719 ;;Total ram usage:        9 bytes
  1720 ;; Hardware stack levels used:    1
  1721 ;; Hardware stack levels required when called:    2
  1722 ;; This function calls:
  1723 ;;		___ftpack
  1724 ;; This function is called by:
  1725 ;;		_main
  1726 ;; This function uses a non-reentrant model
  1727 ;;
  1728                           
  1729                           	psect	text8
  1730  00120C                     __ptext8:
  1731                           	opt stack 0
  1732  00120C                     ___lltoft:
  1733                           	opt stack 28
  1734                           
  1735                           ;incstack = 0
  1736  00120C  0E8E               	movlw	142
  1737  00120E  6E1F               	movwf	___lltoft@exp,c
  1738  001210  D007               	goto	l1952
  1739  001212                     l1950:
  1740  001212  90D8               	bcf	status,0,c
  1741  001214  321A               	rrcf	___lltoft@c+3,f,c
  1742  001216  3219               	rrcf	___lltoft@c+2,f,c
  1743  001218  3218               	rrcf	___lltoft@c+1,f,c
  1744  00121A  3217               	rrcf	___lltoft@c,f,c
  1745  00121C  2A1F               	incf	___lltoft@exp,f,c
  1746  00121E  D000               	goto	l1952
  1747  001220                     l1952:
  1748  001220  0E00               	movlw	0
  1749  001222  1417               	andwf	___lltoft@c,w,c
  1750  001224  6E1B               	movwf	??___lltoft& (0+255),c
  1751  001226  0E00               	movlw	0
  1752  001228  1418               	andwf	___lltoft@c+1,w,c
  1753  00122A  6E1C               	movwf	(??___lltoft+1)& (0+255),c
  1754  00122C  0E00               	movlw	0
  1755  00122E  1419               	andwf	___lltoft@c+2,w,c
  1756  001230  6E1D               	movwf	(??___lltoft+2)& (0+255),c
  1757  001232  0EFF               	movlw	255
  1758  001234  141A               	andwf	___lltoft@c+3,w,c
  1759  001236  6E1E               	movwf	(??___lltoft+3)& (0+255),c
  1760  001238  501B               	movf	??___lltoft,w,c
  1761  00123A  101C               	iorwf	??___lltoft+1,w,c
  1762  00123C  101D               	iorwf	??___lltoft+2,w,c
  1763  00123E  101E               	iorwf	??___lltoft+3,w,c
  1764  001240  A4D8               	btfss	status,2,c
  1765  001242  D7E7               	goto	l1950
  1766  001244  C017  F00F         	movff	___lltoft@c,___ftpack@arg
  1767  001248  C018  F010         	movff	___lltoft@c+1,___ftpack@arg+1
  1768  00124C  C019  F011         	movff	___lltoft@c+2,___ftpack@arg+2
  1769  001250  C01F  F012         	movff	___lltoft@exp,___ftpack@exp
  1770  001254  0E00               	movlw	0
  1771  001256  6E13               	movwf	___ftpack@sign,c
  1772  001258  EC71  F007         	call	___ftpack	;wreg free
  1773  00125C  C00F  F017         	movff	?___ftpack,?___lltoft
  1774  001260  C010  F018         	movff	?___ftpack+1,?___lltoft+1
  1775  001264  C011  F019         	movff	?___ftpack+2,?___lltoft+2
  1776  001268  D000               	goto	l704
  1777  00126A                     l704:
  1778  00126A  0012               	return		;funcret
  1779  00126C                     __end_of___lltoft:
  1780                           	opt stack 0
  1781                           tblptru	equ	0xFF8
  1782                           tblptrh	equ	0xFF7
  1783                           tblptrl	equ	0xFF6
  1784                           tablat	equ	0xFF5
  1785                           prodh	equ	0xFF4
  1786                           prodl	equ	0xFF3
  1787                           intcon	equ	0xFF2
  1788                           indf2	equ	0xFDF
  1789                           fsr2h	equ	0xFDA
  1790                           fsr2l	equ	0xFD9
  1791                           status	equ	0xFD8
  1792                           
  1793 ;; *************** function ___lldiv *****************
  1794 ;; Defined at:
  1795 ;;		line 8 in file "C:\Program Files (x86)\Microchip\xc8\v1.34\sources\common\lldiv.c"
  1796 ;; Parameters:    Size  Location     Type
  1797 ;;  dividend        4   20[COMRAM] unsigned long 
  1798 ;;  divisor         4   24[COMRAM] unsigned long 
  1799 ;; Auto vars:     Size  Location     Type
  1800 ;;  quotient        4   28[COMRAM] unsigned long 
  1801 ;;  counter         1   32[COMRAM] unsigned char 
  1802 ;; Return value:  Size  Location     Type
  1803 ;;                  4   20[COMRAM] unsigned long 
  1804 ;; Registers used:
  1805 ;;		wreg, status,2, status,0
  1806 ;; Tracked objects:
  1807 ;;		On entry : 0/0
  1808 ;;		On exit  : 0/0
  1809 ;;		Unchanged: 0/0
  1810 ;; Data sizes:     COMRAM   BANK0   BANK1   BANK2   BANK3   BANK4   BANK5   BANK6   BANK7
  1811 ;;      Params:         8       0       0       0       0       0       0       0       0
  1812 ;;      Locals:         5       0       0       0       0       0       0       0       0
  1813 ;;      Temps:          0       0       0       0       0       0       0       0       0
  1814 ;;      Totals:        13       0       0       0       0       0       0       0       0
  1815 ;;Total ram usage:       13 bytes
  1816 ;; Hardware stack levels used:    1
  1817 ;; Hardware stack levels required when called:    1
  1818 ;; This function calls:
  1819 ;;		Nothing
  1820 ;; This function is called by:
  1821 ;;		_main
  1822 ;; This function uses a non-reentrant model
  1823 ;;
  1824                           
  1825                           	psect	text9
  1826  001108                     __ptext9:
  1827                           	opt stack 0
  1828  001108                     ___lldiv:
  1829                           	opt stack 29
  1830                           
  1831                           ;incstack = 0
  1832  001108  0E00               	movlw	0
  1833  00110A  6E1D               	movwf	___lldiv@quotient,c
  1834  00110C  0E00               	movlw	0
  1835  00110E  6E1E               	movwf	___lldiv@quotient+1,c
  1836  001110  0E00               	movlw	0
  1837  001112  6E1F               	movwf	___lldiv@quotient+2,c
  1838  001114  0E00               	movlw	0
  1839  001116  6E20               	movwf	___lldiv@quotient+3,c
  1840  001118  5019               	movf	___lldiv@divisor,w,c
  1841  00111A  101A               	iorwf	___lldiv@divisor+1,w,c
  1842  00111C  101B               	iorwf	___lldiv@divisor+2,w,c
  1843  00111E  101C               	iorwf	___lldiv@divisor+3,w,c
  1844  001120  B4D8               	btfsc	status,2,c
  1845  001122  D02F               	goto	l674
  1846  001124  0E01               	movlw	1
  1847  001126  6E21               	movwf	___lldiv@counter,c
  1848  001128  D007               	goto	l1934
  1849  00112A                     l1932:
  1850  00112A  90D8               	bcf	status,0,c
  1851  00112C  3619               	rlcf	___lldiv@divisor,f,c
  1852  00112E  361A               	rlcf	___lldiv@divisor+1,f,c
  1853  001130  361B               	rlcf	___lldiv@divisor+2,f,c
  1854  001132  361C               	rlcf	___lldiv@divisor+3,f,c
  1855  001134  2A21               	incf	___lldiv@counter,f,c
  1856  001136  D000               	goto	l1934
  1857  001138                     l1934:
  1858  001138  BE1C               	btfsc	___lldiv@divisor+3,7,c
  1859  00113A  D002               	goto	l1936
  1860  00113C  D7F6               	goto	l1932
  1861  00113E  D000               	goto	l1936
  1862  001140                     l1936:
  1863  001140  90D8               	bcf	status,0,c
  1864  001142  361D               	rlcf	___lldiv@quotient,f,c
  1865  001144  361E               	rlcf	___lldiv@quotient+1,f,c
  1866  001146  361F               	rlcf	___lldiv@quotient+2,f,c
  1867  001148  3620               	rlcf	___lldiv@quotient+3,f,c
  1868  00114A  5019               	movf	___lldiv@divisor,w,c
  1869  00114C  5C15               	subwf	___lldiv@dividend,w,c
  1870  00114E  501A               	movf	___lldiv@divisor+1,w,c
  1871  001150  5816               	subwfb	___lldiv@dividend+1,w,c
  1872  001152  501B               	movf	___lldiv@divisor+2,w,c
  1873  001154  5817               	subwfb	___lldiv@dividend+2,w,c
  1874  001156  501C               	movf	___lldiv@divisor+3,w,c
  1875  001158  5818               	subwfb	___lldiv@dividend+3,w,c
  1876  00115A  A0D8               	btfss	status,0,c
  1877  00115C  D00A               	goto	l1944
  1878  00115E  5019               	movf	___lldiv@divisor,w,c
  1879  001160  5E15               	subwf	___lldiv@dividend,f,c
  1880  001162  501A               	movf	___lldiv@divisor+1,w,c
  1881  001164  5A16               	subwfb	___lldiv@dividend+1,f,c
  1882  001166  501B               	movf	___lldiv@divisor+2,w,c
  1883  001168  5A17               	subwfb	___lldiv@dividend+2,f,c
  1884  00116A  501C               	movf	___lldiv@divisor+3,w,c
  1885  00116C  5A18               	subwfb	___lldiv@dividend+3,f,c
  1886  00116E  801D               	bsf	___lldiv@quotient,0,c
  1887  001170  D000               	goto	l1944
  1888  001172                     l1944:
  1889  001172  90D8               	bcf	status,0,c
  1890  001174  321C               	rrcf	___lldiv@divisor+3,f,c
  1891  001176  321B               	rrcf	___lldiv@divisor+2,f,c
  1892  001178  321A               	rrcf	___lldiv@divisor+1,f,c
  1893  00117A  3219               	rrcf	___lldiv@divisor,f,c
  1894  00117C  2E21               	decfsz	___lldiv@counter,f,c
  1895  00117E  D7E0               	goto	l1936
  1896  001180  D000               	goto	l674
  1897  001182                     l674:
  1898  001182  C01D  F015         	movff	___lldiv@quotient,?___lldiv
  1899  001186  C01E  F016         	movff	___lldiv@quotient+1,?___lldiv+1
  1900  00118A  C01F  F017         	movff	___lldiv@quotient+2,?___lldiv+2
  1901  00118E  C020  F018         	movff	___lldiv@quotient+3,?___lldiv+3
  1902  001192  0012               	return		;funcret
  1903  001194                     __end_of___lldiv:
  1904                           	opt stack 0
  1905                           tblptru	equ	0xFF8
  1906                           tblptrh	equ	0xFF7
  1907                           tblptrl	equ	0xFF6
  1908                           tablat	equ	0xFF5
  1909                           prodh	equ	0xFF4
  1910                           prodl	equ	0xFF3
  1911                           intcon	equ	0xFF2
  1912                           indf2	equ	0xFDF
  1913                           fsr2h	equ	0xFDA
  1914                           fsr2l	equ	0xFD9
  1915                           status	equ	0xFD8
  1916                           
  1917 ;; *************** function ___fttol *****************
  1918 ;; Defined at:
  1919 ;;		line 44 in file "C:\Program Files (x86)\Microchip\xc8\v1.34\sources\common\fttol.c"
  1920 ;; Parameters:    Size  Location     Type
  1921 ;;  f1              3   61[COMRAM] float 
  1922 ;; Auto vars:     Size  Location     Type
  1923 ;;  lval            4   71[COMRAM] unsigned long 
  1924 ;;  exp1            1   75[COMRAM] unsigned char 
  1925 ;;  sign1           1   70[COMRAM] unsigned char 
  1926 ;; Return value:  Size  Location     Type
  1927 ;;                  4   61[COMRAM] long 
  1928 ;; Registers used:
  1929 ;;		wreg, status,2, status,0
  1930 ;; Tracked objects:
  1931 ;;		On entry : 0/0
  1932 ;;		On exit  : 0/0
  1933 ;;		Unchanged: 0/0
  1934 ;; Data sizes:     COMRAM   BANK0   BANK1   BANK2   BANK3   BANK4   BANK5   BANK6   BANK7
  1935 ;;      Params:         4       0       0       0       0       0       0       0       0
  1936 ;;      Locals:         6       0       0       0       0       0       0       0       0
  1937 ;;      Temps:          5       0       0       0       0       0       0       0       0
  1938 ;;      Totals:        15       0       0       0       0       0       0       0       0
  1939 ;;Total ram usage:       15 bytes
  1940 ;; Hardware stack levels used:    1
  1941 ;; Hardware stack levels required when called:    1
  1942 ;; This function calls:
  1943 ;;		Nothing
  1944 ;; This function is called by:
  1945 ;;		_main
  1946 ;; This function uses a non-reentrant model
  1947 ;;
  1948                           
  1949                           	psect	text10
  1950  000D1A                     __ptext10:
  1951                           	opt stack 0
  1952  000D1A                     ___fttol:
  1953                           	opt stack 29
  1954                           
  1955                           ;incstack = 0
  1956  000D1A  C040  F042         	movff	___fttol@f1+2,??___fttol
  1957  000D1E  6A43               	clrf	(??___fttol+1)& (0+255),c
  1958  000D20  6A44               	clrf	(??___fttol+2)& (0+255),c
  1959  000D22  343F               	rlcf	___fttol@f1+1,w,c
  1960  000D24  3642               	rlcf	??___fttol& (0+255),f,c
  1961  000D26  E301               	bnc	u1121
  1962  000D28  8043               	bsf	(??___fttol+1)& (0+255),0,c
  1963  000D2A                     u1121:
  1964  000D2A  5042               	movf	??___fttol,w,c
  1965  000D2C  6E4C               	movwf	___fttol@exp1,c
  1966  000D2E  504C               	movf	___fttol@exp1,w,c
  1967  000D30  A4D8               	btfss	status,2,c
  1968  000D32  D002               	goto	l1886
  1969  000D34  D039               	goto	l1910
  1970  000D36  D063               	goto	l621
  1971  000D38                     l1886:
  1972  000D38  0E17               	movlw	23
  1973  000D3A  6E42               	movwf	??___fttol& (0+255),c
  1974  000D3C  C03E  F043         	movff	___fttol@f1,??___fttol+1
  1975  000D40  C03F  F044         	movff	___fttol@f1+1,??___fttol+2
  1976  000D44  C040  F045         	movff	___fttol@f1+2,??___fttol+3
  1977  000D48  2842               	incf	??___fttol,w,c
  1978  000D4A  6E46               	movwf	(??___fttol+4)& (0+255),c
  1979  000D4C  D004               	goto	u1140
  1980  000D4E                     u1145:
  1981  000D4E  90D8               	bcf	status,0,c
  1982  000D50  3245               	rrcf	??___fttol+3,f,c
  1983  000D52  3244               	rrcf	??___fttol+2,f,c
  1984  000D54  3243               	rrcf	??___fttol+1,f,c
  1985  000D56                     u1140:
  1986  000D56  2E46               	decfsz	(??___fttol+4)& (0+255),f,c
  1987  000D58  D7FA               	goto	u1145
  1988  000D5A  5043               	movf	??___fttol+1,w,c
  1989  000D5C  6E47               	movwf	___fttol@sign1,c
  1990  000D5E  8E3F               	bsf	___fttol@f1+1,7,c
  1991  000D60  0EFF               	movlw	255
  1992  000D62  163E               	andwf	___fttol@f1,f,c
  1993  000D64  0EFF               	movlw	255
  1994  000D66  163F               	andwf	___fttol@f1+1,f,c
  1995  000D68  0E00               	movlw	0
  1996  000D6A  1640               	andwf	___fttol@f1+2,f,c
  1997  000D6C  503E               	movf	___fttol@f1,w,c
  1998  000D6E  6E48               	movwf	___fttol@lval,c
  1999  000D70  503F               	movf	___fttol@f1+1,w,c
  2000  000D72  6E49               	movwf	___fttol@lval+1,c
  2001  000D74  5040               	movf	___fttol@f1+2,w,c
  2002  000D76  6E4A               	movwf	___fttol@lval+2,c
  2003  000D78  6A4B               	clrf	___fttol@lval+3,c
  2004  000D7A  0E8E               	movlw	142
  2005  000D7C  5E4C               	subwf	___fttol@exp1,f,c
  2006  000D7E  AE4C               	btfss	___fttol@exp1,7,c
  2007  000D80  D010               	goto	l1908
  2008  000D82  504C               	movf	___fttol@exp1,w,c
  2009  000D84  0A80               	xorlw	128
  2010  000D86  0F8F               	addlw	143
  2011  000D88  B0D8               	btfsc	status,0,c
  2012  000D8A  D003               	goto	l1904
  2013  000D8C  D00D               	goto	l1910
  2014  000D8E  D037               	goto	l621
  2015  000D90  D000               	goto	l1904
  2016  000D92                     l1904:
  2017  000D92  90D8               	bcf	status,0,c
  2018  000D94  324B               	rrcf	___fttol@lval+3,f,c
  2019  000D96  324A               	rrcf	___fttol@lval+2,f,c
  2020  000D98  3249               	rrcf	___fttol@lval+1,f,c
  2021  000D9A  3248               	rrcf	___fttol@lval,f,c
  2022  000D9C  3E4C               	incfsz	___fttol@exp1,f,c
  2023  000D9E  D7F9               	goto	l1904
  2024  000DA0  D019               	goto	l1918
  2025  000DA2                     l1908:
  2026  000DA2  0E17               	movlw	23
  2027  000DA4  644C               	cpfsgt	___fttol@exp1,c
  2028  000DA6  D011               	goto	l1916
  2029  000DA8                     l1910:
  2030  000DA8  0E00               	movlw	0
  2031  000DAA  6E3E               	movwf	?___fttol,c
  2032  000DAC  0E00               	movlw	0
  2033  000DAE  6E3F               	movwf	?___fttol+1,c
  2034  000DB0  0E00               	movlw	0
  2035  000DB2  6E40               	movwf	?___fttol+2,c
  2036  000DB4  0E00               	movlw	0
  2037  000DB6  6E41               	movwf	?___fttol+3,c
  2038  000DB8  D022               	goto	l621
  2039  000DBA  D007               	goto	l1916
  2040  000DBC                     l1914:
  2041  000DBC  90D8               	bcf	status,0,c
  2042  000DBE  3648               	rlcf	___fttol@lval,f,c
  2043  000DC0  3649               	rlcf	___fttol@lval+1,f,c
  2044  000DC2  364A               	rlcf	___fttol@lval+2,f,c
  2045  000DC4  364B               	rlcf	___fttol@lval+3,f,c
  2046  000DC6  064C               	decf	___fttol@exp1,f,c
  2047  000DC8  D000               	goto	l1916
  2048  000DCA                     l1916:
  2049  000DCA  504C               	movf	___fttol@exp1,w,c
  2050  000DCC  B4D8               	btfsc	status,2,c
  2051  000DCE  D002               	goto	l1918
  2052  000DD0  D7F5               	goto	l1914
  2053  000DD2  D000               	goto	l1918
  2054  000DD4                     l1918:
  2055  000DD4  5047               	movf	___fttol@sign1,w,c
  2056  000DD6  B4D8               	btfsc	status,2,c
  2057  000DD8  D009               	goto	l1922
  2058  000DDA  1E4B               	comf	___fttol@lval+3,f,c
  2059  000DDC  1E4A               	comf	___fttol@lval+2,f,c
  2060  000DDE  1E49               	comf	___fttol@lval+1,f,c
  2061  000DE0  6C48               	negf	___fttol@lval,c
  2062  000DE2  0E00               	movlw	0
  2063  000DE4  2249               	addwfc	___fttol@lval+1,f,c
  2064  000DE6  224A               	addwfc	___fttol@lval+2,f,c
  2065  000DE8  224B               	addwfc	___fttol@lval+3,f,c
  2066  000DEA  D000               	goto	l1922
  2067  000DEC                     l1922:
  2068  000DEC  C048  F03E         	movff	___fttol@lval,?___fttol
  2069  000DF0  C049  F03F         	movff	___fttol@lval+1,?___fttol+1
  2070  000DF4  C04A  F040         	movff	___fttol@lval+2,?___fttol+2
  2071  000DF8  C04B  F041         	movff	___fttol@lval+3,?___fttol+3
  2072  000DFC  D000               	goto	l621
  2073  000DFE                     l621:
  2074  000DFE  0012               	return		;funcret
  2075  000E00                     __end_of___fttol:
  2076                           	opt stack 0
  2077                           tblptru	equ	0xFF8
  2078                           tblptrh	equ	0xFF7
  2079                           tblptrl	equ	0xFF6
  2080                           tablat	equ	0xFF5
  2081                           prodh	equ	0xFF4
  2082                           prodl	equ	0xFF3
  2083                           intcon	equ	0xFF2
  2084                           indf2	equ	0xFDF
  2085                           fsr2h	equ	0xFDA
  2086                           fsr2l	equ	0xFD9
  2087                           status	equ	0xFD8
  2088                           
  2089 ;; *************** function ___ftmul *****************
  2090 ;; Defined at:
  2091 ;;		line 62 in file "C:\Program Files (x86)\Microchip\xc8\v1.34\sources\common\ftmul.c"
  2092 ;; Parameters:    Size  Location     Type
  2093 ;;  f1              3   46[COMRAM] float 
  2094 ;;  f2              3   49[COMRAM] float 
  2095 ;; Auto vars:     Size  Location     Type
  2096 ;;  f3_as_produc    3   56[COMRAM] unsigned um
  2097 ;;  sign            1   60[COMRAM] unsigned char 
  2098 ;;  cntr            1   59[COMRAM] unsigned char 
  2099 ;;  exp             1   55[COMRAM] unsigned char 
  2100 ;; Return value:  Size  Location     Type
  2101 ;;                  3   46[COMRAM] float 
  2102 ;; Registers used:
  2103 ;;		wreg, status,2, status,0, cstack
  2104 ;; Tracked objects:
  2105 ;;		On entry : 0/0
  2106 ;;		On exit  : 0/0
  2107 ;;		Unchanged: 0/0
  2108 ;; Data sizes:     COMRAM   BANK0   BANK1   BANK2   BANK3   BANK4   BANK5   BANK6   BANK7
  2109 ;;      Params:         6       0       0       0       0       0       0       0       0
  2110 ;;      Locals:         6       0       0       0       0       0       0       0       0
  2111 ;;      Temps:          3       0       0       0       0       0       0       0       0
  2112 ;;      Totals:        15       0       0       0       0       0       0       0       0
  2113 ;;Total ram usage:       15 bytes
  2114 ;; Hardware stack levels used:    1
  2115 ;; Hardware stack levels required when called:    2
  2116 ;; This function calls:
  2117 ;;		___ftpack
  2118 ;; This function is called by:
  2119 ;;		_main
  2120 ;; This function uses a non-reentrant model
  2121 ;;
  2122                           
  2123                           	psect	text11
  2124  000C22                     __ptext11:
  2125                           	opt stack 0
  2126  000C22                     ___ftmul:
  2127                           	opt stack 28
  2128                           
  2129                           ;incstack = 0
  2130  000C22  C031  F035         	movff	___ftmul@f1+2,??___ftmul
  2131  000C26  6A36               	clrf	(??___ftmul+1)& (0+255),c
  2132  000C28  6A37               	clrf	(??___ftmul+2)& (0+255),c
  2133  000C2A  3430               	rlcf	___ftmul@f1+1,w,c
  2134  000C2C  3635               	rlcf	??___ftmul& (0+255),f,c
  2135  000C2E  E301               	bnc	u1061
  2136  000C30  8036               	bsf	(??___ftmul+1)& (0+255),0,c
  2137  000C32                     u1061:
  2138  000C32  5035               	movf	??___ftmul,w,c
  2139  000C34  6E38               	movwf	___ftmul@exp,c
  2140  000C36  5038               	movf	___ftmul@exp,w,c
  2141  000C38  A4D8               	btfss	status,2,c
  2142  000C3A  D002               	goto	l1838
  2143  000C3C  D00E               	goto	l1840
  2144  000C3E  D06C               	goto	l600
  2145  000C40                     l1838:
  2146  000C40  C034  F035         	movff	___ftmul@f2+2,??___ftmul
  2147  000C44  6A36               	clrf	(??___ftmul+1)& (0+255),c
  2148  000C46  6A37               	clrf	(??___ftmul+2)& (0+255),c
  2149  000C48  3433               	rlcf	___ftmul@f2+1,w,c
  2150  000C4A  3635               	rlcf	??___ftmul& (0+255),f,c
  2151  000C4C  E301               	bnc	u1081
  2152  000C4E  8036               	bsf	(??___ftmul+1)& (0+255),0,c
  2153  000C50                     u1081:
  2154  000C50  5035               	movf	??___ftmul,w,c
  2155  000C52  6E3D               	movwf	___ftmul@sign,c
  2156  000C54  503D               	movf	___ftmul@sign,w,c
  2157  000C56  A4D8               	btfss	status,2,c
  2158  000C58  D007               	goto	l1844
  2159  000C5A                     l1840:
  2160  000C5A  0E00               	movlw	0
  2161  000C5C  6E2F               	movwf	?___ftmul,c
  2162  000C5E  0E00               	movlw	0
  2163  000C60  6E30               	movwf	?___ftmul+1,c
  2164  000C62  0E00               	movlw	0
  2165  000C64  6E31               	movwf	?___ftmul+2,c
  2166  000C66  D058               	goto	l600
  2167  000C68                     l1844:
  2168  000C68  503D               	movf	___ftmul@sign,w,c
  2169  000C6A  0F7B               	addlw	123
  2170  000C6C  2638               	addwf	___ftmul@exp,f,c
  2171  000C6E  C031  F03D         	movff	___ftmul@f1+2,___ftmul@sign
  2172  000C72  5034               	movf	___ftmul@f2+2,w,c
  2173  000C74  1A3D               	xorwf	___ftmul@sign,f,c
  2174  000C76  0E80               	movlw	128
  2175  000C78  163D               	andwf	___ftmul@sign,f,c
  2176  000C7A  8E30               	bsf	___ftmul@f1+1,7,c
  2177  000C7C  8E33               	bsf	___ftmul@f2+1,7,c
  2178  000C7E  0EFF               	movlw	255
  2179  000C80  1632               	andwf	___ftmul@f2,f,c
  2180  000C82  0EFF               	movlw	255
  2181  000C84  1633               	andwf	___ftmul@f2+1,f,c
  2182  000C86  0E00               	movlw	0
  2183  000C88  1634               	andwf	___ftmul@f2+2,f,c
  2184  000C8A  0E00               	movlw	0
  2185  000C8C  6E39               	movwf	___ftmul@f3_as_product,c
  2186  000C8E  0E00               	movlw	0
  2187  000C90  6E3A               	movwf	___ftmul@f3_as_product+1,c
  2188  000C92  0E00               	movlw	0
  2189  000C94  6E3B               	movwf	___ftmul@f3_as_product+2,c
  2190  000C96  0E07               	movlw	7
  2191  000C98  6E3C               	movwf	___ftmul@cntr,c
  2192  000C9A  D000               	goto	l1858
  2193  000C9C                     l1858:
  2194  000C9C  A02F               	btfss	___ftmul@f1,0,c
  2195  000C9E  D007               	goto	l1862
  2196  000CA0  5032               	movf	___ftmul@f2,w,c
  2197  000CA2  2639               	addwf	___ftmul@f3_as_product,f,c
  2198  000CA4  5033               	movf	___ftmul@f2+1,w,c
  2199  000CA6  223A               	addwfc	___ftmul@f3_as_product+1,f,c
  2200  000CA8  5034               	movf	___ftmul@f2+2,w,c
  2201  000CAA  223B               	addwfc	___ftmul@f3_as_product+2,f,c
  2202  000CAC  D000               	goto	l1862
  2203  000CAE                     l1862:
  2204  000CAE  90D8               	bcf	status,0,c
  2205  000CB0  3231               	rrcf	___ftmul@f1+2,f,c
  2206  000CB2  3230               	rrcf	___ftmul@f1+1,f,c
  2207  000CB4  322F               	rrcf	___ftmul@f1,f,c
  2208  000CB6  90D8               	bcf	status,0,c
  2209  000CB8  3632               	rlcf	___ftmul@f2,f,c
  2210  000CBA  3633               	rlcf	___ftmul@f2+1,f,c
  2211  000CBC  3634               	rlcf	___ftmul@f2+2,f,c
  2212  000CBE  2E3C               	decfsz	___ftmul@cntr,f,c
  2213  000CC0  D7ED               	goto	l1858
  2214  000CC2  D000               	goto	l1866
  2215  000CC4                     l1866:
  2216  000CC4  0E09               	movlw	9
  2217  000CC6  6E3C               	movwf	___ftmul@cntr,c
  2218  000CC8  D000               	goto	l1868
  2219  000CCA                     l1868:
  2220  000CCA  A02F               	btfss	___ftmul@f1,0,c
  2221  000CCC  D007               	goto	l1872
  2222  000CCE  5032               	movf	___ftmul@f2,w,c
  2223  000CD0  2639               	addwf	___ftmul@f3_as_product,f,c
  2224  000CD2  5033               	movf	___ftmul@f2+1,w,c
  2225  000CD4  223A               	addwfc	___ftmul@f3_as_product+1,f,c
  2226  000CD6  5034               	movf	___ftmul@f2+2,w,c
  2227  000CD8  223B               	addwfc	___ftmul@f3_as_product+2,f,c
  2228  000CDA  D000               	goto	l1872
  2229  000CDC                     l1872:
  2230  000CDC  90D8               	bcf	status,0,c
  2231  000CDE  3231               	rrcf	___ftmul@f1+2,f,c
  2232  000CE0  3230               	rrcf	___ftmul@f1+1,f,c
  2233  000CE2  322F               	rrcf	___ftmul@f1,f,c
  2234  000CE4  90D8               	bcf	status,0,c
  2235  000CE6  323B               	rrcf	___ftmul@f3_as_product+2,f,c
  2236  000CE8  323A               	rrcf	___ftmul@f3_as_product+1,f,c
  2237  000CEA  3239               	rrcf	___ftmul@f3_as_product,f,c
  2238  000CEC  2E3C               	decfsz	___ftmul@cntr,f,c
  2239  000CEE  D7ED               	goto	l1868
  2240  000CF0  D000               	goto	l1876
  2241  000CF2                     l1876:
  2242  000CF2  C039  F00F         	movff	___ftmul@f3_as_product,___ftpack@arg
  2243  000CF6  C03A  F010         	movff	___ftmul@f3_as_product+1,___ftpack@arg+1
  2244  000CFA  C03B  F011         	movff	___ftmul@f3_as_product+2,___ftpack@arg+2
  2245  000CFE  C038  F012         	movff	___ftmul@exp,___ftpack@exp
  2246  000D02  C03D  F013         	movff	___ftmul@sign,___ftpack@sign
  2247  000D06  EC71  F007         	call	___ftpack	;wreg free
  2248  000D0A  C00F  F02F         	movff	?___ftpack,?___ftmul
  2249  000D0E  C010  F030         	movff	?___ftpack+1,?___ftmul+1
  2250  000D12  C011  F031         	movff	?___ftpack+2,?___ftmul+2
  2251  000D16  D000               	goto	l600
  2252  000D18                     l600:
  2253  000D18  0012               	return		;funcret
  2254  000D1A                     __end_of___ftmul:
  2255                           	opt stack 0
  2256                           tblptru	equ	0xFF8
  2257                           tblptrh	equ	0xFF7
  2258                           tblptrl	equ	0xFF6
  2259                           tablat	equ	0xFF5
  2260                           prodh	equ	0xFF4
  2261                           prodl	equ	0xFF3
  2262                           intcon	equ	0xFF2
  2263                           indf2	equ	0xFDF
  2264                           fsr2h	equ	0xFDA
  2265                           fsr2l	equ	0xFD9
  2266                           status	equ	0xFD8
  2267                           
  2268 ;; *************** function ___ftdiv *****************
  2269 ;; Defined at:
  2270 ;;		line 54 in file "C:\Program Files (x86)\Microchip\xc8\v1.34\sources\common\ftdiv.c"
  2271 ;; Parameters:    Size  Location     Type
  2272 ;;  f1              3   31[COMRAM] float 
  2273 ;;  f2              3   34[COMRAM] float 
  2274 ;; Auto vars:     Size  Location     Type
  2275 ;;  f3              3   41[COMRAM] float 
  2276 ;;  sign            1   45[COMRAM] unsigned char 
  2277 ;;  exp             1   44[COMRAM] unsigned char 
  2278 ;;  cntr            1   40[COMRAM] unsigned char 
  2279 ;; Return value:  Size  Location     Type
  2280 ;;                  3   31[COMRAM] float 
  2281 ;; Registers used:
  2282 ;;		wreg, status,2, status,0, cstack
  2283 ;; Tracked objects:
  2284 ;;		On entry : 0/0
  2285 ;;		On exit  : 0/0
  2286 ;;		Unchanged: 0/0
  2287 ;; Data sizes:     COMRAM   BANK0   BANK1   BANK2   BANK3   BANK4   BANK5   BANK6   BANK7
  2288 ;;      Params:         6       0       0       0       0       0       0       0       0
  2289 ;;      Locals:         6       0       0       0       0       0       0       0       0
  2290 ;;      Temps:          3       0       0       0       0       0       0       0       0
  2291 ;;      Totals:        15       0       0       0       0       0       0       0       0
  2292 ;;Total ram usage:       15 bytes
  2293 ;; Hardware stack levels used:    1
  2294 ;; Hardware stack levels required when called:    2
  2295 ;; This function calls:
  2296 ;;		___ftpack
  2297 ;; This function is called by:
  2298 ;;		_main
  2299 ;; This function uses a non-reentrant model
  2300 ;;
  2301                           
  2302                           	psect	text12
  2303  000E00                     __ptext12:
  2304                           	opt stack 0
  2305  000E00                     ___ftdiv:
  2306                           	opt stack 28
  2307                           
  2308                           ;incstack = 0
  2309  000E00  C022  F026         	movff	___ftdiv@f1+2,??___ftdiv
  2310  000E04  6A27               	clrf	(??___ftdiv+1)& (0+255),c
  2311  000E06  6A28               	clrf	(??___ftdiv+2)& (0+255),c
  2312  000E08  3421               	rlcf	___ftdiv@f1+1,w,c
  2313  000E0A  3626               	rlcf	??___ftdiv& (0+255),f,c
  2314  000E0C  E301               	bnc	u1011
  2315  000E0E  8027               	bsf	(??___ftdiv+1)& (0+255),0,c
  2316  000E10                     u1011:
  2317  000E10  5026               	movf	??___ftdiv,w,c
  2318  000E12  6E2D               	movwf	___ftdiv@exp,c
  2319  000E14  502D               	movf	___ftdiv@exp,w,c
  2320  000E16  A4D8               	btfss	status,2,c
  2321  000E18  D002               	goto	l1792
  2322  000E1A  D00E               	goto	l1794
  2323  000E1C  D061               	goto	l585
  2324  000E1E                     l1792:
  2325  000E1E  C025  F026         	movff	___ftdiv@f2+2,??___ftdiv
  2326  000E22  6A27               	clrf	(??___ftdiv+1)& (0+255),c
  2327  000E24  6A28               	clrf	(??___ftdiv+2)& (0+255),c
  2328  000E26  3424               	rlcf	___ftdiv@f2+1,w,c
  2329  000E28  3626               	rlcf	??___ftdiv& (0+255),f,c
  2330  000E2A  E301               	bnc	u1031
  2331  000E2C  8027               	bsf	(??___ftdiv+1)& (0+255),0,c
  2332  000E2E                     u1031:
  2333  000E2E  5026               	movf	??___ftdiv,w,c
  2334  000E30  6E2E               	movwf	___ftdiv@sign,c
  2335  000E32  502E               	movf	___ftdiv@sign,w,c
  2336  000E34  A4D8               	btfss	status,2,c
  2337  000E36  D007               	goto	l1798
  2338  000E38                     l1794:
  2339  000E38  0E00               	movlw	0
  2340  000E3A  6E20               	movwf	?___ftdiv,c
  2341  000E3C  0E00               	movlw	0
  2342  000E3E  6E21               	movwf	?___ftdiv+1,c
  2343  000E40  0E00               	movlw	0
  2344  000E42  6E22               	movwf	?___ftdiv+2,c
  2345  000E44  D04D               	goto	l585
  2346  000E46                     l1798:
  2347  000E46  0E00               	movlw	0
  2348  000E48  6E2A               	movwf	___ftdiv@f3,c
  2349  000E4A  0E00               	movlw	0
  2350  000E4C  6E2B               	movwf	___ftdiv@f3+1,c
  2351  000E4E  0E00               	movlw	0
  2352  000E50  6E2C               	movwf	___ftdiv@f3+2,c
  2353  000E52  502E               	movf	___ftdiv@sign,w,c
  2354  000E54  0F89               	addlw	137
  2355  000E56  5E2D               	subwf	___ftdiv@exp,f,c
  2356  000E58  C022  F02E         	movff	___ftdiv@f1+2,___ftdiv@sign
  2357  000E5C  5025               	movf	___ftdiv@f2+2,w,c
  2358  000E5E  1A2E               	xorwf	___ftdiv@sign,f,c
  2359  000E60  0E80               	movlw	128
  2360  000E62  162E               	andwf	___ftdiv@sign,f,c
  2361  000E64  8E21               	bsf	___ftdiv@f1+1,7,c
  2362  000E66  0EFF               	movlw	255
  2363  000E68  1620               	andwf	___ftdiv@f1,f,c
  2364  000E6A  0EFF               	movlw	255
  2365  000E6C  1621               	andwf	___ftdiv@f1+1,f,c
  2366  000E6E  0E00               	movlw	0
  2367  000E70  1622               	andwf	___ftdiv@f1+2,f,c
  2368  000E72  8E24               	bsf	___ftdiv@f2+1,7,c
  2369  000E74  0EFF               	movlw	255
  2370  000E76  1623               	andwf	___ftdiv@f2,f,c
  2371  000E78  0EFF               	movlw	255
  2372  000E7A  1624               	andwf	___ftdiv@f2+1,f,c
  2373  000E7C  0E00               	movlw	0
  2374  000E7E  1625               	andwf	___ftdiv@f2+2,f,c
  2375  000E80  0E18               	movlw	24
  2376  000E82  6E29               	movwf	___ftdiv@cntr,c
  2377  000E84  D000               	goto	l1818
  2378  000E86                     l1818:
  2379  000E86  90D8               	bcf	status,0,c
  2380  000E88  362A               	rlcf	___ftdiv@f3,f,c
  2381  000E8A  362B               	rlcf	___ftdiv@f3+1,f,c
  2382  000E8C  362C               	rlcf	___ftdiv@f3+2,f,c
  2383  000E8E  5023               	movf	___ftdiv@f2,w,c
  2384  000E90  5C20               	subwf	___ftdiv@f1,w,c
  2385  000E92  5024               	movf	___ftdiv@f2+1,w,c
  2386  000E94  5821               	subwfb	___ftdiv@f1+1,w,c
  2387  000E96  5025               	movf	___ftdiv@f2+2,w,c
  2388  000E98  5822               	subwfb	___ftdiv@f1+2,w,c
  2389  000E9A  A0D8               	btfss	status,0,c
  2390  000E9C  D007               	goto	l588
  2391  000E9E  5023               	movf	___ftdiv@f2,w,c
  2392  000EA0  5E20               	subwf	___ftdiv@f1,f,c
  2393  000EA2  5024               	movf	___ftdiv@f2+1,w,c
  2394  000EA4  5A21               	subwfb	___ftdiv@f1+1,f,c
  2395  000EA6  5025               	movf	___ftdiv@f2+2,w,c
  2396  000EA8  5A22               	subwfb	___ftdiv@f1+2,f,c
  2397  000EAA  802A               	bsf	___ftdiv@f3,0,c
  2398  000EAC                     l588:
  2399  000EAC  90D8               	bcf	status,0,c
  2400  000EAE  3620               	rlcf	___ftdiv@f1,f,c
  2401  000EB0  3621               	rlcf	___ftdiv@f1+1,f,c
  2402  000EB2  3622               	rlcf	___ftdiv@f1+2,f,c
  2403  000EB4  2E29               	decfsz	___ftdiv@cntr,f,c
  2404  000EB6  D7E7               	goto	l1818
  2405  000EB8  D000               	goto	l1828
  2406  000EBA                     l1828:
  2407  000EBA  C02A  F00F         	movff	___ftdiv@f3,___ftpack@arg
  2408  000EBE  C02B  F010         	movff	___ftdiv@f3+1,___ftpack@arg+1
  2409  000EC2  C02C  F011         	movff	___ftdiv@f3+2,___ftpack@arg+2
  2410  000EC6  C02D  F012         	movff	___ftdiv@exp,___ftpack@exp
  2411  000ECA  C02E  F013         	movff	___ftdiv@sign,___ftpack@sign
  2412  000ECE  EC71  F007         	call	___ftpack	;wreg free
  2413  000ED2  C00F  F020         	movff	?___ftpack,?___ftdiv
  2414  000ED6  C010  F021         	movff	?___ftpack+1,?___ftdiv+1
  2415  000EDA  C011  F022         	movff	?___ftpack+2,?___ftdiv+2
  2416  000EDE  D000               	goto	l585
  2417  000EE0                     l585:
  2418  000EE0  0012               	return		;funcret
  2419  000EE2                     __end_of___ftdiv:
  2420                           	opt stack 0
  2421                           tblptru	equ	0xFF8
  2422                           tblptrh	equ	0xFF7
  2423                           tblptrl	equ	0xFF6
  2424                           tablat	equ	0xFF5
  2425                           prodh	equ	0xFF4
  2426                           prodl	equ	0xFF3
  2427                           intcon	equ	0xFF2
  2428                           indf2	equ	0xFDF
  2429                           fsr2h	equ	0xFDA
  2430                           fsr2l	equ	0xFD9
  2431                           status	equ	0xFD8
  2432                           
  2433 ;; *************** function ___ftpack *****************
  2434 ;; Defined at:
  2435 ;;		line 62 in file "C:\Program Files (x86)\Microchip\xc8\v1.34\sources\common\float.c"
  2436 ;; Parameters:    Size  Location     Type
  2437 ;;  arg             3   14[COMRAM] unsigned um
  2438 ;;  exp             1   17[COMRAM] unsigned char 
  2439 ;;  sign            1   18[COMRAM] unsigned char 
  2440 ;; Auto vars:     Size  Location     Type
  2441 ;;		None
  2442 ;; Return value:  Size  Location     Type
  2443 ;;                  3   14[COMRAM] float 
  2444 ;; Registers used:
  2445 ;;		wreg, status,2, status,0
  2446 ;; Tracked objects:
  2447 ;;		On entry : 0/0
  2448 ;;		On exit  : 0/0
  2449 ;;		Unchanged: 0/0
  2450 ;; Data sizes:     COMRAM   BANK0   BANK1   BANK2   BANK3   BANK4   BANK5   BANK6   BANK7
  2451 ;;      Params:         5       0       0       0       0       0       0       0       0
  2452 ;;      Locals:         0       0       0       0       0       0       0       0       0
  2453 ;;      Temps:          3       0       0       0       0       0       0       0       0
  2454 ;;      Totals:         8       0       0       0       0       0       0       0       0
  2455 ;;Total ram usage:        8 bytes
  2456 ;; Hardware stack levels used:    1
  2457 ;; Hardware stack levels required when called:    1
  2458 ;; This function calls:
  2459 ;;		Nothing
  2460 ;; This function is called by:
  2461 ;;		___ftdiv
  2462 ;;		___ftmul
  2463 ;;		___lltoft
  2464 ;; This function uses a non-reentrant model
  2465 ;;
  2466                           
  2467                           	psect	text13
  2468  000EE2                     __ptext13:
  2469                           	opt stack 0
  2470  000EE2                     ___ftpack:
  2471                           	opt stack 28
  2472                           
  2473                           ;incstack = 0
  2474  000EE2  5012               	movf	___ftpack@exp,w,c
  2475  000EE4  B4D8               	btfsc	status,2,c
  2476  000EE6  D005               	goto	l1598
  2477  000EE8  500F               	movf	___ftpack@arg,w,c
  2478  000EEA  1010               	iorwf	___ftpack@arg+1,w,c
  2479  000EEC  1011               	iorwf	___ftpack@arg+2,w,c
  2480  000EEE  A4D8               	btfss	status,2,c
  2481  000EF0  D00E               	goto	l1604
  2482  000EF2                     l1598:
  2483  000EF2  0E00               	movlw	0
  2484  000EF4  6E0F               	movwf	?___ftpack,c
  2485  000EF6  0E00               	movlw	0
  2486  000EF8  6E10               	movwf	?___ftpack+1,c
  2487  000EFA  0E00               	movlw	0
  2488  000EFC  6E11               	movwf	?___ftpack+2,c
  2489  000EFE  D053               	goto	l513
  2490  000F00  D006               	goto	l1604
  2491  000F02                     l1602:
  2492  000F02  2A12               	incf	___ftpack@exp,f,c
  2493  000F04  90D8               	bcf	status,0,c
  2494  000F06  3211               	rrcf	___ftpack@arg+2,f,c
  2495  000F08  3210               	rrcf	___ftpack@arg+1,f,c
  2496  000F0A  320F               	rrcf	___ftpack@arg,f,c
  2497  000F0C  D000               	goto	l1604
  2498  000F0E                     l1604:
  2499  000F0E  0E00               	movlw	0
  2500  000F10  140F               	andwf	___ftpack@arg,w,c
  2501  000F12  6E14               	movwf	??___ftpack& (0+255),c
  2502  000F14  0E00               	movlw	0
  2503  000F16  1410               	andwf	___ftpack@arg+1,w,c
  2504  000F18  6E15               	movwf	(??___ftpack+1)& (0+255),c
  2505  000F1A  0EFE               	movlw	254
  2506  000F1C  1411               	andwf	___ftpack@arg+2,w,c
  2507  000F1E  6E16               	movwf	(??___ftpack+2)& (0+255),c
  2508  000F20  5014               	movf	??___ftpack,w,c
  2509  000F22  1015               	iorwf	??___ftpack+1,w,c
  2510  000F24  1016               	iorwf	??___ftpack+2,w,c
  2511  000F26  B4D8               	btfsc	status,2,c
  2512  000F28  D00E               	goto	l1610
  2513  000F2A  D7EB               	goto	l1602
  2514  000F2C  D00C               	goto	l1610
  2515  000F2E                     l1606:
  2516  000F2E  2A12               	incf	___ftpack@exp,f,c
  2517  000F30  0E01               	movlw	1
  2518  000F32  260F               	addwf	___ftpack@arg,f,c
  2519  000F34  0E00               	movlw	0
  2520  000F36  2210               	addwfc	___ftpack@arg+1,f,c
  2521  000F38  0E00               	movlw	0
  2522  000F3A  2211               	addwfc	___ftpack@arg+2,f,c
  2523  000F3C  90D8               	bcf	status,0,c
  2524  000F3E  3211               	rrcf	___ftpack@arg+2,f,c
  2525  000F40  3210               	rrcf	___ftpack@arg+1,f,c
  2526  000F42  320F               	rrcf	___ftpack@arg,f,c
  2527  000F44  D000               	goto	l1610
  2528  000F46                     l1610:
  2529  000F46  0E00               	movlw	0
  2530  000F48  140F               	andwf	___ftpack@arg,w,c
  2531  000F4A  6E14               	movwf	??___ftpack& (0+255),c
  2532  000F4C  0E00               	movlw	0
  2533  000F4E  1410               	andwf	___ftpack@arg+1,w,c
  2534  000F50  6E15               	movwf	(??___ftpack+1)& (0+255),c
  2535  000F52  0EFF               	movlw	255
  2536  000F54  1411               	andwf	___ftpack@arg+2,w,c
  2537  000F56  6E16               	movwf	(??___ftpack+2)& (0+255),c
  2538  000F58  5014               	movf	??___ftpack,w,c
  2539  000F5A  1015               	iorwf	??___ftpack+1,w,c
  2540  000F5C  1016               	iorwf	??___ftpack+2,w,c
  2541  000F5E  B4D8               	btfsc	status,2,c
  2542  000F60  D008               	goto	l1614
  2543  000F62  D7E5               	goto	l1606
  2544  000F64  D006               	goto	l1614
  2545  000F66                     l1612:
  2546  000F66  0612               	decf	___ftpack@exp,f,c
  2547  000F68  90D8               	bcf	status,0,c
  2548  000F6A  360F               	rlcf	___ftpack@arg,f,c
  2549  000F6C  3610               	rlcf	___ftpack@arg+1,f,c
  2550  000F6E  3611               	rlcf	___ftpack@arg+2,f,c
  2551  000F70  D000               	goto	l1614
  2552  000F72                     l1614:
  2553  000F72  BE10               	btfsc	___ftpack@arg+1,7,c
  2554  000F74  D004               	goto	l524
  2555  000F76  0E02               	movlw	2
  2556  000F78  6012               	cpfslt	___ftpack@exp,c
  2557  000F7A  D7F5               	goto	l1612
  2558  000F7C  D000               	goto	l524
  2559  000F7E                     l524:
  2560  000F7E  B012               	btfsc	___ftpack@exp,0,c
  2561  000F80  D002               	goto	l1620
  2562  000F82  9E10               	bcf	___ftpack@arg+1,7,c
  2563  000F84  D000               	goto	l1620
  2564  000F86                     l1620:
  2565  000F86  90D8               	bcf	status,0,c
  2566  000F88  3212               	rrcf	___ftpack@exp,f,c
  2567  000F8A  5012               	movf	___ftpack@exp,w,c
  2568  000F8C  1211               	iorwf	___ftpack@arg+2,f,c
  2569  000F8E  5013               	movf	___ftpack@sign,w,c
  2570  000F90  B4D8               	btfsc	status,2,c
  2571  000F92  D002               	goto	l1626
  2572  000F94  8E11               	bsf	___ftpack@arg+2,7,c
  2573  000F96  D000               	goto	l1626
  2574  000F98                     l1626:
  2575  000F98  C00F  F00F         	movff	___ftpack@arg,?___ftpack
  2576  000F9C  C010  F010         	movff	___ftpack@arg+1,?___ftpack+1
  2577  000FA0  C011  F011         	movff	___ftpack@arg+2,?___ftpack+2
  2578  000FA4  D000               	goto	l513
  2579  000FA6                     l513:
  2580  000FA6  0012               	return		;funcret
  2581  000FA8                     __end_of___ftpack:
  2582                           	opt stack 0
  2583                           tblptru	equ	0xFF8
  2584                           tblptrh	equ	0xFF7
  2585                           tblptrl	equ	0xFF6
  2586                           tablat	equ	0xFF5
  2587                           prodh	equ	0xFF4
  2588                           prodl	equ	0xFF3
  2589                           intcon	equ	0xFF2
  2590                           indf2	equ	0xFDF
  2591                           fsr2h	equ	0xFDA
  2592                           fsr2l	equ	0xFD9
  2593                           status	equ	0xFD8
  2594                           
  2595 ;; *************** function _OpenXLCD *****************
  2596 ;; Defined at:
  2597 ;;		line 19 in file "C:\Program Files (x86)\Microchip\xc8\v1.34\sources\pic18\plib\XLCD\openxlcd.c"
  2598 ;; Parameters:    Size  Location     Type
  2599 ;;  lcdtype         1    wreg     unsigned char 
  2600 ;; Auto vars:     Size  Location     Type
  2601 ;;  lcdtype         1   18[COMRAM] unsigned char 
  2602 ;; Return value:  Size  Location     Type
  2603 ;;		None               void
  2604 ;; Registers used:
  2605 ;;		wreg, status,2, status,0, cstack
  2606 ;; Tracked objects:
  2607 ;;		On entry : 0/0
  2608 ;;		On exit  : 0/0
  2609 ;;		Unchanged: 0/0
  2610 ;; Data sizes:     COMRAM   BANK0   BANK1   BANK2   BANK3   BANK4   BANK5   BANK6   BANK7
  2611 ;;      Params:         0       0       0       0       0       0       0       0       0
  2612 ;;      Locals:         1       0       0       0       0       0       0       0       0
  2613 ;;      Temps:          0       0       0       0       0       0       0       0       0
  2614 ;;      Totals:         1       0       0       0       0       0       0       0       0
  2615 ;;Total ram usage:        1 bytes
  2616 ;; Hardware stack levels used:    1
  2617 ;; Hardware stack levels required when called:    3
  2618 ;; This function calls:
  2619 ;;		_BusyXLCD
  2620 ;;		_Delay10KTCYx
  2621 ;;		_DelayPORXLCD
  2622 ;;		_SetDDRamAddr
  2623 ;;		_WriteCmdXLCD
  2624 ;; This function is called by:
  2625 ;;		_main
  2626 ;; This function uses a non-reentrant model
  2627 ;;
  2628                           
  2629                           	psect	text14
  2630  000FA8                     __ptext14:
  2631                           	opt stack 0
  2632  000FA8                     _OpenXLCD:
  2633                           	opt stack 27
  2634                           
  2635                           ;incstack = 0
  2636                           ;OpenXLCD@lcdtype stored from wreg
  2637  000FA8  6E13               	movwf	OpenXLCD@lcdtype,c
  2638  000FAA  0EF0               	movlw	240
  2639  000FAC  1681               	andwf	3969,f,c	;volatile
  2640  000FAE  0EF0               	movlw	240
  2641  000FB0  1693               	andwf	3987,f,c	;volatile
  2642  000FB2  9C93               	bcf	3987,6,c	;volatile
  2643  000FB4  9A93               	bcf	3987,5,c	;volatile
  2644  000FB6  9893               	bcf	3987,4,c	;volatile
  2645  000FB8  9C8A               	bcf	3978,6,c	;volatile
  2646  000FBA  9A8A               	bcf	3978,5,c	;volatile
  2647  000FBC  988A               	bcf	3978,4,c	;volatile
  2648  000FBE  ECD8  F00A         	call	_DelayPORXLCD	;wreg free
  2649  000FC2  0E30               	movlw	48
  2650  000FC4  ECF7  F009         	call	_WriteCmdXLCD
  2651  000FC8  0E05               	movlw	5
  2652  000FCA  ECB8  F00A         	call	_Delay10KTCYx
  2653  000FCE  0E30               	movlw	48
  2654  000FD0  ECF7  F009         	call	_WriteCmdXLCD
  2655  000FD4  0E01               	movlw	1
  2656  000FD6  ECB8  F00A         	call	_Delay10KTCYx
  2657  000FDA  0E32               	movlw	50
  2658  000FDC  ECF7  F009         	call	_WriteCmdXLCD
  2659  000FE0  D000               	goto	l1730
  2660  000FE2                     l1730:
  2661  000FE2  EC17  F00A         	call	_BusyXLCD	;wreg free
  2662  000FE6  0900               	iorlw	0
  2663  000FE8  B4D8               	btfsc	status,2,c
  2664  000FEA  D002               	goto	l1732
  2665  000FEC  D7FA               	goto	l1730
  2666  000FEE  D000               	goto	l1732
  2667  000FF0                     l1732:
  2668  000FF0  EC17  F00A         	call	_BusyXLCD	;wreg free
  2669  000FF4  0900               	iorlw	0
  2670  000FF6  A4D8               	btfss	status,2,c
  2671  000FF8  D7FB               	goto	l1732
  2672  000FFA  5013               	movf	OpenXLCD@lcdtype,w,c
  2673  000FFC  ECF7  F009         	call	_WriteCmdXLCD
  2674  001000  D000               	goto	l1736
  2675  001002                     l1736:
  2676  001002  EC17  F00A         	call	_BusyXLCD	;wreg free
  2677  001006  0900               	iorlw	0
  2678  001008  A4D8               	btfss	status,2,c
  2679  00100A  D7FB               	goto	l1736
  2680  00100C  0E08               	movlw	8
  2681  00100E  ECF7  F009         	call	_WriteCmdXLCD
  2682  001012  D000               	goto	l1740
  2683  001014                     l1740:
  2684  001014  EC17  F00A         	call	_BusyXLCD	;wreg free
  2685  001018  0900               	iorlw	0
  2686  00101A  A4D8               	btfss	status,2,c
  2687  00101C  D7FB               	goto	l1740
  2688  00101E  0E0F               	movlw	15
  2689  001020  ECF7  F009         	call	_WriteCmdXLCD
  2690  001024  D000               	goto	l1744
  2691  001026                     l1744:
  2692  001026  EC17  F00A         	call	_BusyXLCD	;wreg free
  2693  00102A  0900               	iorlw	0
  2694  00102C  A4D8               	btfss	status,2,c
  2695  00102E  D7FB               	goto	l1744
  2696  001030  0E01               	movlw	1
  2697  001032  ECF7  F009         	call	_WriteCmdXLCD
  2698  001036  D000               	goto	l1748
  2699  001038                     l1748:
  2700  001038  EC17  F00A         	call	_BusyXLCD	;wreg free
  2701  00103C  0900               	iorlw	0
  2702  00103E  A4D8               	btfss	status,2,c
  2703  001040  D7FB               	goto	l1748
  2704  001042  0E04               	movlw	4
  2705  001044  ECF7  F009         	call	_WriteCmdXLCD
  2706  001048  D000               	goto	l1752
  2707  00104A                     l1752:
  2708  00104A  EC17  F00A         	call	_BusyXLCD	;wreg free
  2709  00104E  0900               	iorlw	0
  2710  001050  A4D8               	btfss	status,2,c
  2711  001052  D7FB               	goto	l1752
  2712  001054  0E80               	movlw	128
  2713  001056  EC64  F009         	call	_SetDDRamAddr
  2714  00105A  D000               	goto	l149
  2715  00105C                     l149:
  2716  00105C  0012               	return		;funcret
  2717  00105E                     __end_of_OpenXLCD:
  2718                           	opt stack 0
  2719                           tblptru	equ	0xFF8
  2720                           tblptrh	equ	0xFF7
  2721                           tblptrl	equ	0xFF6
  2722                           tablat	equ	0xFF5
  2723                           prodh	equ	0xFF4
  2724                           prodl	equ	0xFF3
  2725                           intcon	equ	0xFF2
  2726                           indf2	equ	0xFDF
  2727                           fsr2h	equ	0xFDA
  2728                           fsr2l	equ	0xFD9
  2729                           status	equ	0xFD8
  2730                           
  2731 ;; *************** function _DelayPORXLCD *****************
  2732 ;; Defined at:
  2733 ;;		line 67 in file "C:/Users/Davide/Desktop/Progetti_proteus_MPlabX/LCD_control_PIC18.X/newmain.c"
  2734 ;; Parameters:    Size  Location     Type
  2735 ;;		None
  2736 ;; Auto vars:     Size  Location     Type
  2737 ;;		None
  2738 ;; Return value:  Size  Location     Type
  2739 ;;		None               void
  2740 ;; Registers used:
  2741 ;;		wreg
  2742 ;; Tracked objects:
  2743 ;;		On entry : 0/0
  2744 ;;		On exit  : 0/0
  2745 ;;		Unchanged: 0/0
  2746 ;; Data sizes:     COMRAM   BANK0   BANK1   BANK2   BANK3   BANK4   BANK5   BANK6   BANK7
  2747 ;;      Params:         0       0       0       0       0       0       0       0       0
  2748 ;;      Locals:         0       0       0       0       0       0       0       0       0
  2749 ;;      Temps:          1       0       0       0       0       0       0       0       0
  2750 ;;      Totals:         1       0       0       0       0       0       0       0       0
  2751 ;;Total ram usage:        1 bytes
  2752 ;; Hardware stack levels used:    1
  2753 ;; Hardware stack levels required when called:    1
  2754 ;; This function calls:
  2755 ;;		Nothing
  2756 ;; This function is called by:
  2757 ;;		_OpenXLCD
  2758 ;; This function uses a non-reentrant model
  2759 ;;
  2760                           
  2761                           	psect	text15
  2762  0015B0                     __ptext15:
  2763                           	opt stack 0
  2764  0015B0                     _DelayPORXLCD:
  2765                           	opt stack 28
  2766                           
  2767                           ;incstack = 0
  2768  0015B0  0E14               	movlw	20
  2769  0015B2  6E0F               	movwf	??_DelayPORXLCD& (0+255),c
  2770  0015B4  0E7A               	movlw	122
  2771  0015B6                     u1277:
  2772  0015B6  2EE8               	decfsz	wreg,f,c
  2773  0015B8  D7FE               	goto	u1277
  2774  0015BA  2E0F               	decfsz	??_DelayPORXLCD& (0+255),f,c
  2775  0015BC  D7FC               	goto	u1277
  2776  0015BE  D000               	goto	l66
  2777  0015C0                     l66:
  2778  0015C0  0012               	return		;funcret
  2779  0015C2                     __end_of_DelayPORXLCD:
  2780                           	opt stack 0
  2781                           tblptru	equ	0xFF8
  2782                           tblptrh	equ	0xFF7
  2783                           tblptrl	equ	0xFF6
  2784                           tablat	equ	0xFF5
  2785                           prodh	equ	0xFF4
  2786                           prodl	equ	0xFF3
  2787                           intcon	equ	0xFF2
  2788                           wreg	equ	0xFE8
  2789                           indf2	equ	0xFDF
  2790                           fsr2h	equ	0xFDA
  2791                           fsr2l	equ	0xFD9
  2792                           status	equ	0xFD8
  2793                           
  2794 ;; *************** function _Delay10KTCYx *****************
  2795 ;; Defined at:
  2796 ;;		line 8 in file "C:\Program Files (x86)\Microchip\xc8\v1.34\sources\pic18\d10ktcyx.c"
  2797 ;; Parameters:    Size  Location     Type
  2798 ;;  unit            1    wreg     unsigned char 
  2799 ;; Auto vars:     Size  Location     Type
  2800 ;;  unit            1   15[COMRAM] unsigned char 
  2801 ;; Return value:  Size  Location     Type
  2802 ;;		None               void
  2803 ;; Registers used:
  2804 ;;		wreg
  2805 ;; Tracked objects:
  2806 ;;		On entry : 0/0
  2807 ;;		On exit  : 0/0
  2808 ;;		Unchanged: 0/0
  2809 ;; Data sizes:     COMRAM   BANK0   BANK1   BANK2   BANK3   BANK4   BANK5   BANK6   BANK7
  2810 ;;      Params:         0       0       0       0       0       0       0       0       0
  2811 ;;      Locals:         1       0       0       0       0       0       0       0       0
  2812 ;;      Temps:          1       0       0       0       0       0       0       0       0
  2813 ;;      Totals:         2       0       0       0       0       0       0       0       0
  2814 ;;Total ram usage:        2 bytes
  2815 ;; Hardware stack levels used:    1
  2816 ;; Hardware stack levels required when called:    1
  2817 ;; This function calls:
  2818 ;;		Nothing
  2819 ;; This function is called by:
  2820 ;;		_OpenXLCD
  2821 ;; This function uses a non-reentrant model
  2822 ;;
  2823                           
  2824                           	psect	text16
  2825  001570                     __ptext16:
  2826                           	opt stack 0
  2827  001570                     _Delay10KTCYx:
  2828                           	opt stack 28
  2829                           
  2830                           ;incstack = 0
  2831                           ;Delay10KTCYx@unit stored from wreg
  2832  001570  6E10               	movwf	Delay10KTCYx@unit,c
  2833  001572  0E0D               	movlw	13
  2834  001574  6E0F               	movwf	??_Delay10KTCYx& (0+255),c
  2835  001576  0EFC               	movlw	252
  2836  001578                     u1287:
  2837  001578  2EE8               	decfsz	wreg,f,c
  2838  00157A  D7FE               	goto	u1287
  2839  00157C  2E0F               	decfsz	??_Delay10KTCYx& (0+255),f,c
  2840  00157E  D7FC               	goto	u1287
  2841  001580  2E10               	decfsz	Delay10KTCYx@unit,f,c
  2842  001582  D7F7               	goto	l1590
  2843  001584  D000               	goto	l423
  2844  001586                     l423:
  2845  001586  0012               	return		;funcret
  2846  001588                     __end_of_Delay10KTCYx:
  2847                           	opt stack 0
  2848                           tblptru	equ	0xFF8
  2849                           tblptrh	equ	0xFF7
  2850                           tblptrl	equ	0xFF6
  2851                           tablat	equ	0xFF5
  2852                           prodh	equ	0xFF4
  2853                           prodl	equ	0xFF3
  2854                           intcon	equ	0xFF2
  2855                           wreg	equ	0xFE8
  2856                           indf2	equ	0xFDF
  2857                           fsr2h	equ	0xFDA
  2858                           fsr2l	equ	0xFD9
  2859                           status	equ	0xFD8
  2860                           
  2861 ;; *************** function _LCD_Move *****************
  2862 ;; Defined at:
  2863 ;;		line 88 in file "C:/Users/Davide/Desktop/Progetti_proteus_MPlabX/LCD_control_PIC18.X/newmain.c"
  2864 ;; Parameters:    Size  Location     Type
  2865 ;;  row             1    wreg     unsigned char 
  2866 ;;  column          1   18[COMRAM] unsigned char 
  2867 ;; Auto vars:     Size  Location     Type
  2868 ;;  row             1   19[COMRAM] unsigned char 
  2869 ;;  ddaddr          1   20[COMRAM] unsigned char 
  2870 ;; Return value:  Size  Location     Type
  2871 ;;		None               void
  2872 ;; Registers used:
  2873 ;;		wreg, status,2, status,0, prodl, prodh, cstack
  2874 ;; Tracked objects:
  2875 ;;		On entry : 0/0
  2876 ;;		On exit  : 0/0
  2877 ;;		Unchanged: 0/0
  2878 ;; Data sizes:     COMRAM   BANK0   BANK1   BANK2   BANK3   BANK4   BANK5   BANK6   BANK7
  2879 ;;      Params:         1       0       0       0       0       0       0       0       0
  2880 ;;      Locals:         2       0       0       0       0       0       0       0       0
  2881 ;;      Temps:          0       0       0       0       0       0       0       0       0
  2882 ;;      Totals:         3       0       0       0       0       0       0       0       0
  2883 ;;Total ram usage:        3 bytes
  2884 ;; Hardware stack levels used:    1
  2885 ;; Hardware stack levels required when called:    3
  2886 ;; This function calls:
  2887 ;;		_BusyXLCD
  2888 ;;		_SetDDRamAddr
  2889 ;; This function is called by:
  2890 ;;		_main
  2891 ;; This function uses a non-reentrant model
  2892 ;;
  2893                           
  2894                           	psect	text17
  2895  001532                     __ptext17:
  2896                           	opt stack 0
  2897  001532                     _LCD_Move:
  2898                           	opt stack 27
  2899                           
  2900                           ;incstack = 0
  2901                           ;LCD_Move@row stored from wreg
  2902  001532  6E14               	movwf	LCD_Move@row,c
  2903  001534  0414               	decf	LCD_Move@row,w,c
  2904  001536  0D28               	mullw	40
  2905  001538  50F3               	movf	prodl,w,c
  2906  00153A  2413               	addwf	LCD_Move@column,w,c
  2907  00153C  6E15               	movwf	LCD_Move@ddaddr,c
  2908                           
  2909                           ;newmain.c: 90: while( BusyXLCD() );
  2910  00153E  D000               	goto	l1700
  2911  001540                     l1700:
  2912  001540  EC17  F00A         	call	_BusyXLCD	;wreg free
  2913  001544  0900               	iorlw	0
  2914  001546  A4D8               	btfss	status,2,c
  2915  001548  D7FB               	goto	l1700
  2916                           
  2917                           ;newmain.c: 91: SetDDRamAddr( ddaddr );
  2918  00154A  5015               	movf	LCD_Move@ddaddr,w,c
  2919  00154C  EC64  F009         	call	_SetDDRamAddr
  2920  001550  0012               	return		;funcret
  2921  001552                     __end_of_LCD_Move:
  2922                           	opt stack 0
  2923                           tblptru	equ	0xFF8
  2924                           tblptrh	equ	0xFF7
  2925                           tblptrl	equ	0xFF6
  2926                           tablat	equ	0xFF5
  2927                           prodh	equ	0xFF4
  2928                           prodl	equ	0xFF3
  2929                           intcon	equ	0xFF2
  2930                           wreg	equ	0xFE8
  2931                           indf2	equ	0xFDF
  2932                           fsr2h	equ	0xFDA
  2933                           fsr2l	equ	0xFD9
  2934                           status	equ	0xFD8
  2935                           
  2936 ;; *************** function _SetDDRamAddr *****************
  2937 ;; Defined at:
  2938 ;;		line 13 in file "C:\Program Files (x86)\Microchip\xc8\v1.34\sources\pic18\plib\XLCD\setddram.c"
  2939 ;; Parameters:    Size  Location     Type
  2940 ;;  DDaddr          1    wreg     unsigned char 
  2941 ;; Auto vars:     Size  Location     Type
  2942 ;;  DDaddr          1   17[COMRAM] unsigned char 
  2943 ;; Return value:  Size  Location     Type
  2944 ;;		None               void
  2945 ;; Registers used:
  2946 ;;		wreg, status,2, status,0, cstack
  2947 ;; Tracked objects:
  2948 ;;		On entry : 0/0
  2949 ;;		On exit  : 0/0
  2950 ;;		Unchanged: 0/0
  2951 ;; Data sizes:     COMRAM   BANK0   BANK1   BANK2   BANK3   BANK4   BANK5   BANK6   BANK7
  2952 ;;      Params:         0       0       0       0       0       0       0       0       0
  2953 ;;      Locals:         1       0       0       0       0       0       0       0       0
  2954 ;;      Temps:          3       0       0       0       0       0       0       0       0
  2955 ;;      Totals:         4       0       0       0       0       0       0       0       0
  2956 ;;Total ram usage:        4 bytes
  2957 ;; Hardware stack levels used:    1
  2958 ;; Hardware stack levels required when called:    2
  2959 ;; This function calls:
  2960 ;;		_DelayFor18TCY
  2961 ;; This function is called by:
  2962 ;;		_LCD_Move
  2963 ;;		_OpenXLCD
  2964 ;; This function uses a non-reentrant model
  2965 ;;
  2966                           
  2967                           	psect	text18
  2968  0012C8                     __ptext18:
  2969                           	opt stack 0
  2970  0012C8                     _SetDDRamAddr:
  2971                           	opt stack 27
  2972                           
  2973                           ;incstack = 0
  2974                           ;SetDDRamAddr@DDaddr stored from wreg
  2975  0012C8  6E12               	movwf	SetDDRamAddr@DDaddr,c
  2976  0012CA  0EF0               	movlw	240
  2977  0012CC  1693               	andwf	3987,f,c	;volatile
  2978  0012CE  0EF0               	movlw	240
  2979  0012D0  1681               	andwf	3969,f,c	;volatile
  2980  0012D2  5012               	movf	SetDDRamAddr@DDaddr,w,c
  2981  0012D4  6E0F               	movwf	??_SetDDRamAddr& (0+255),c
  2982  0012D6  6A10               	clrf	(??_SetDDRamAddr+1)& (0+255),c
  2983  0012D8  8E0F               	bsf	??_SetDDRamAddr,7,c
  2984  0012DA  0E04               	movlw	4
  2985  0012DC  6E11               	movwf	(??_SetDDRamAddr+2)& (0+255),c
  2986  0012DE                     u715:
  2987  0012DE  3410               	rlcf	??_SetDDRamAddr+1,w,c
  2988  0012E0  3210               	rrcf	??_SetDDRamAddr+1,f,c
  2989  0012E2  320F               	rrcf	??_SetDDRamAddr,f,c
  2990  0012E4  2E11               	decfsz	(??_SetDDRamAddr+2)& (0+255),f,c
  2991  0012E6  D7FB               	goto	u715
  2992  0012E8  500F               	movf	??_SetDDRamAddr,w,c
  2993  0012EA  0B0F               	andlw	15
  2994  0012EC  1281               	iorwf	3969,f,c	;volatile
  2995  0012EE  9C8A               	bcf	3978,6,c	;volatile
  2996  0012F0  9A8A               	bcf	3978,5,c	;volatile
  2997  0012F2  ECA9  F00A         	call	_DelayFor18TCY	;wreg free
  2998  0012F6  888A               	bsf	3978,4,c	;volatile
  2999  0012F8  ECA9  F00A         	call	_DelayFor18TCY	;wreg free
  3000  0012FC  988A               	bcf	3978,4,c	;volatile
  3001  0012FE  0EF0               	movlw	240
  3002  001300  1681               	andwf	3969,f,c	;volatile
  3003  001302  5012               	movf	SetDDRamAddr@DDaddr,w,c
  3004  001304  0B0F               	andlw	15
  3005  001306  1281               	iorwf	3969,f,c	;volatile
  3006  001308  ECA9  F00A         	call	_DelayFor18TCY	;wreg free
  3007  00130C  888A               	bsf	3978,4,c	;volatile
  3008  00130E  ECA9  F00A         	call	_DelayFor18TCY	;wreg free
  3009  001312  988A               	bcf	3978,4,c	;volatile
  3010  001314  0E0F               	movlw	15
  3011  001316  1293               	iorwf	3987,f,c	;volatile
  3012  001318  D000               	goto	l173
  3013  00131A                     l173:
  3014  00131A  0012               	return		;funcret
  3015  00131C                     __end_of_SetDDRamAddr:
  3016                           	opt stack 0
  3017                           tblptru	equ	0xFF8
  3018                           tblptrh	equ	0xFF7
  3019                           tblptrl	equ	0xFF6
  3020                           tablat	equ	0xFF5
  3021                           prodh	equ	0xFF4
  3022                           prodl	equ	0xFF3
  3023                           intcon	equ	0xFF2
  3024                           wreg	equ	0xFE8
  3025                           indf2	equ	0xFDF
  3026                           fsr2h	equ	0xFDA
  3027                           fsr2l	equ	0xFD9
  3028                           status	equ	0xFD8
  3029                           
  3030 ;; *************** function _LCD_Clear *****************
  3031 ;; Defined at:
  3032 ;;		line 80 in file "C:/Users/Davide/Desktop/Progetti_proteus_MPlabX/LCD_control_PIC18.X/newmain.c"
  3033 ;; Parameters:    Size  Location     Type
  3034 ;;		None
  3035 ;; Auto vars:     Size  Location     Type
  3036 ;;		None
  3037 ;; Return value:  Size  Location     Type
  3038 ;;		None               void
  3039 ;; Registers used:
  3040 ;;		wreg, status,2, status,0, cstack
  3041 ;; Tracked objects:
  3042 ;;		On entry : 0/0
  3043 ;;		On exit  : 0/0
  3044 ;;		Unchanged: 0/0
  3045 ;; Data sizes:     COMRAM   BANK0   BANK1   BANK2   BANK3   BANK4   BANK5   BANK6   BANK7
  3046 ;;      Params:         0       0       0       0       0       0       0       0       0
  3047 ;;      Locals:         0       0       0       0       0       0       0       0       0
  3048 ;;      Temps:          0       0       0       0       0       0       0       0       0
  3049 ;;      Totals:         0       0       0       0       0       0       0       0       0
  3050 ;;Total ram usage:        0 bytes
  3051 ;; Hardware stack levels used:    1
  3052 ;; Hardware stack levels required when called:    3
  3053 ;; This function calls:
  3054 ;;		_BusyXLCD
  3055 ;;		_WriteCmdXLCD
  3056 ;; This function is called by:
  3057 ;;		_main
  3058 ;; This function uses a non-reentrant model
  3059 ;;
  3060                           
  3061                           	psect	text19
  3062  00159C                     __ptext19:
  3063                           	opt stack 0
  3064  00159C                     _LCD_Clear:
  3065                           	opt stack 27
  3066                           
  3067                           ;newmain.c: 82: while(BusyXLCD());
  3068                           
  3069                           ;incstack = 0
  3070  00159C  D000               	goto	l1694
  3071  00159E                     l1694:
  3072  00159E  EC17  F00A         	call	_BusyXLCD	;wreg free
  3073  0015A2  0900               	iorlw	0
  3074  0015A4  A4D8               	btfss	status,2,c
  3075  0015A6  D7FB               	goto	l1694
  3076                           
  3077                           ;newmain.c: 83: WriteCmdXLCD(0x01);
  3078  0015A8  0E01               	movlw	1
  3079  0015AA  ECF7  F009         	call	_WriteCmdXLCD
  3080  0015AE  0012               	return		;funcret
  3081  0015B0                     __end_of_LCD_Clear:
  3082                           	opt stack 0
  3083                           tblptru	equ	0xFF8
  3084                           tblptrh	equ	0xFF7
  3085                           tblptrl	equ	0xFF6
  3086                           tablat	equ	0xFF5
  3087                           prodh	equ	0xFF4
  3088                           prodl	equ	0xFF3
  3089                           intcon	equ	0xFF2
  3090                           wreg	equ	0xFE8
  3091                           indf2	equ	0xFDF
  3092                           fsr2h	equ	0xFDA
  3093                           fsr2l	equ	0xFD9
  3094                           status	equ	0xFD8
  3095                           
  3096 ;; *************** function _WriteCmdXLCD *****************
  3097 ;; Defined at:
  3098 ;;		line 13 in file "C:\Program Files (x86)\Microchip\xc8\v1.34\sources\pic18\plib\XLCD\wcmdxlcd.c"
  3099 ;; Parameters:    Size  Location     Type
  3100 ;;  cmd             1    wreg     unsigned char 
  3101 ;; Auto vars:     Size  Location     Type
  3102 ;;  cmd             1   14[COMRAM] unsigned char 
  3103 ;; Return value:  Size  Location     Type
  3104 ;;		None               void
  3105 ;; Registers used:
  3106 ;;		wreg, status,2, status,0, cstack
  3107 ;; Tracked objects:
  3108 ;;		On entry : 0/0
  3109 ;;		On exit  : 0/0
  3110 ;;		Unchanged: 0/0
  3111 ;; Data sizes:     COMRAM   BANK0   BANK1   BANK2   BANK3   BANK4   BANK5   BANK6   BANK7
  3112 ;;      Params:         0       0       0       0       0       0       0       0       0
  3113 ;;      Locals:         1       0       0       0       0       0       0       0       0
  3114 ;;      Temps:          0       0       0       0       0       0       0       0       0
  3115 ;;      Totals:         1       0       0       0       0       0       0       0       0
  3116 ;;Total ram usage:        1 bytes
  3117 ;; Hardware stack levels used:    1
  3118 ;; Hardware stack levels required when called:    2
  3119 ;; This function calls:
  3120 ;;		_DelayFor18TCY
  3121 ;; This function is called by:
  3122 ;;		_LCD_Clear
  3123 ;;		_main
  3124 ;;		_OpenXLCD
  3125 ;; This function uses a non-reentrant model
  3126 ;;
  3127                           
  3128                           	psect	text20
  3129  0013EE                     __ptext20:
  3130                           	opt stack 0
  3131  0013EE                     _WriteCmdXLCD:
  3132                           	opt stack 28
  3133                           
  3134                           ;incstack = 0
  3135                           ;WriteCmdXLCD@cmd stored from wreg
  3136  0013EE  6E0F               	movwf	WriteCmdXLCD@cmd,c
  3137  0013F0  0EF0               	movlw	240
  3138  0013F2  1693               	andwf	3987,f,c	;volatile
  3139  0013F4  0EF0               	movlw	240
  3140  0013F6  1681               	andwf	3969,f,c	;volatile
  3141  0013F8  380F               	swapf	WriteCmdXLCD@cmd,w,c
  3142  0013FA  0B0F               	andlw	15
  3143  0013FC  0B0F               	andlw	15
  3144  0013FE  1281               	iorwf	3969,f,c	;volatile
  3145  001400  9C8A               	bcf	3978,6,c	;volatile
  3146  001402  9A8A               	bcf	3978,5,c	;volatile
  3147  001404  ECA9  F00A         	call	_DelayFor18TCY	;wreg free
  3148  001408  888A               	bsf	3978,4,c	;volatile
  3149  00140A  ECA9  F00A         	call	_DelayFor18TCY	;wreg free
  3150  00140E  988A               	bcf	3978,4,c	;volatile
  3151  001410  0EF0               	movlw	240
  3152  001412  1681               	andwf	3969,f,c	;volatile
  3153  001414  500F               	movf	WriteCmdXLCD@cmd,w,c
  3154  001416  0B0F               	andlw	15
  3155  001418  1281               	iorwf	3969,f,c	;volatile
  3156  00141A  ECA9  F00A         	call	_DelayFor18TCY	;wreg free
  3157  00141E  888A               	bsf	3978,4,c	;volatile
  3158  001420  ECA9  F00A         	call	_DelayFor18TCY	;wreg free
  3159  001424  988A               	bcf	3978,4,c	;volatile
  3160  001426  0E0F               	movlw	15
  3161  001428  1293               	iorwf	3987,f,c	;volatile
  3162  00142A  D000               	goto	l184
  3163  00142C                     l184:
  3164  00142C  0012               	return		;funcret
  3165  00142E                     __end_of_WriteCmdXLCD:
  3166                           	opt stack 0
  3167                           tblptru	equ	0xFF8
  3168                           tblptrh	equ	0xFF7
  3169                           tblptrl	equ	0xFF6
  3170                           tablat	equ	0xFF5
  3171                           prodh	equ	0xFF4
  3172                           prodl	equ	0xFF3
  3173                           intcon	equ	0xFF2
  3174                           wreg	equ	0xFE8
  3175                           indf2	equ	0xFDF
  3176                           fsr2h	equ	0xFDA
  3177                           fsr2l	equ	0xFD9
  3178                           status	equ	0xFD8
  3179                           
  3180 ;; *************** function _BusyXLCD *****************
  3181 ;; Defined at:
  3182 ;;		line 11 in file "C:\Program Files (x86)\Microchip\xc8\v1.34\sources\pic18\plib\XLCD\busyxlcd.c"
  3183 ;; Parameters:    Size  Location     Type
  3184 ;;		None
  3185 ;; Auto vars:     Size  Location     Type
  3186 ;;		None
  3187 ;; Return value:  Size  Location     Type
  3188 ;;                  1    wreg      unsigned char 
  3189 ;; Registers used:
  3190 ;;		wreg, cstack
  3191 ;; Tracked objects:
  3192 ;;		On entry : 0/0
  3193 ;;		On exit  : 0/0
  3194 ;;		Unchanged: 0/0
  3195 ;; Data sizes:     COMRAM   BANK0   BANK1   BANK2   BANK3   BANK4   BANK5   BANK6   BANK7
  3196 ;;      Params:         0       0       0       0       0       0       0       0       0
  3197 ;;      Locals:         0       0       0       0       0       0       0       0       0
  3198 ;;      Temps:          0       0       0       0       0       0       0       0       0
  3199 ;;      Totals:         0       0       0       0       0       0       0       0       0
  3200 ;;Total ram usage:        0 bytes
  3201 ;; Hardware stack levels used:    1
  3202 ;; Hardware stack levels required when called:    2
  3203 ;; This function calls:
  3204 ;;		_DelayFor18TCY
  3205 ;; This function is called by:
  3206 ;;		_LCD_Clear
  3207 ;;		_LCD_Move
  3208 ;;		_main
  3209 ;;		_OpenXLCD
  3210 ;;		_putrsXLCD
  3211 ;; This function uses a non-reentrant model
  3212 ;;
  3213                           
  3214                           	psect	text21
  3215  00142E                     __ptext21:
  3216                           	opt stack 0
  3217  00142E                     _BusyXLCD:
  3218                           	opt stack 27
  3219                           
  3220                           ;incstack = 0
  3221  00142E  8C8A               	bsf	3978,6,c	;volatile
  3222  001430  9A8A               	bcf	3978,5,c	;volatile
  3223  001432  ECA9  F00A         	call	_DelayFor18TCY	;wreg free
  3224  001436  888A               	bsf	3978,4,c	;volatile
  3225  001438  ECA9  F00A         	call	_DelayFor18TCY	;wreg free
  3226  00143C  A681               	btfss	3969,3,c	;volatile
  3227  00143E  D00A               	goto	l105
  3228  001440  988A               	bcf	3978,4,c	;volatile
  3229  001442  ECA9  F00A         	call	_DelayFor18TCY	;wreg free
  3230  001446  888A               	bsf	3978,4,c	;volatile
  3231  001448  ECA9  F00A         	call	_DelayFor18TCY	;wreg free
  3232  00144C  988A               	bcf	3978,4,c	;volatile
  3233  00144E  9C8A               	bcf	3978,6,c	;volatile
  3234  001450  0E01               	movlw	1
  3235  001452  D00A               	goto	l106
  3236  001454                     l105:
  3237  001454  988A               	bcf	3978,4,c	;volatile
  3238  001456  ECA9  F00A         	call	_DelayFor18TCY	;wreg free
  3239  00145A  888A               	bsf	3978,4,c	;volatile
  3240  00145C  ECA9  F00A         	call	_DelayFor18TCY	;wreg free
  3241  001460  988A               	bcf	3978,4,c	;volatile
  3242  001462  9C8A               	bcf	3978,6,c	;volatile
  3243  001464  0E00               	movlw	0
  3244  001466  D000               	goto	l106
  3245  001468                     l106:
  3246  001468  0012               	return		;funcret
  3247  00146A                     __end_of_BusyXLCD:
  3248                           	opt stack 0
  3249                           tblptru	equ	0xFF8
  3250                           tblptrh	equ	0xFF7
  3251                           tblptrl	equ	0xFF6
  3252                           tablat	equ	0xFF5
  3253                           prodh	equ	0xFF4
  3254                           prodl	equ	0xFF3
  3255                           intcon	equ	0xFF2
  3256                           wreg	equ	0xFE8
  3257                           indf2	equ	0xFDF
  3258                           fsr2h	equ	0xFDA
  3259                           fsr2l	equ	0xFD9
  3260                           status	equ	0xFD8
  3261                           
  3262 ;; *************** function _DelayFor18TCY *****************
  3263 ;; Defined at:
  3264 ;;		line 56 in file "C:/Users/Davide/Desktop/Progetti_proteus_MPlabX/LCD_control_PIC18.X/newmain.c"
  3265 ;; Parameters:    Size  Location     Type
  3266 ;;		None
  3267 ;; Auto vars:     Size  Location     Type
  3268 ;;		None
  3269 ;; Return value:  Size  Location     Type
  3270 ;;		None               void
  3271 ;; Registers used:
  3272 ;;		None
  3273 ;; Tracked objects:
  3274 ;;		On entry : 0/0
  3275 ;;		On exit  : 0/0
  3276 ;;		Unchanged: 0/0
  3277 ;; Data sizes:     COMRAM   BANK0   BANK1   BANK2   BANK3   BANK4   BANK5   BANK6   BANK7
  3278 ;;      Params:         0       0       0       0       0       0       0       0       0
  3279 ;;      Locals:         0       0       0       0       0       0       0       0       0
  3280 ;;      Temps:          0       0       0       0       0       0       0       0       0
  3281 ;;      Totals:         0       0       0       0       0       0       0       0       0
  3282 ;;Total ram usage:        0 bytes
  3283 ;; Hardware stack levels used:    1
  3284 ;; Hardware stack levels required when called:    1
  3285 ;; This function calls:
  3286 ;;		Nothing
  3287 ;; This function is called by:
  3288 ;;		_BusyXLCD
  3289 ;;		_SetDDRamAddr
  3290 ;;		_WriteCmdXLCD
  3291 ;;		_WriteDataXLCD
  3292 ;; This function uses a non-reentrant model
  3293 ;;
  3294                           
  3295                           	psect	text22
  3296  001552                     __ptext22:
  3297                           	opt stack 0
  3298  001552                     _DelayFor18TCY:
  3299                           	opt stack 27
  3300                           
  3301                           ;newmain.c: 58: __nop(); __nop(); __nop(); __nop();
  3302                           
  3303                           ;incstack = 0
  3304  001552  F000               	nop	
  3305  001554  F000               	nop	
  3306  001556  F000               	nop	
  3307  001558  F000               	nop	
  3308                           
  3309                           ;newmain.c: 59: __nop(); __nop(); __nop(); __nop();
  3310  00155A  F000               	nop	
  3311  00155C  F000               	nop	
  3312  00155E  F000               	nop	
  3313  001560  F000               	nop	
  3314                           
  3315                           ;newmain.c: 60: __nop(); __nop(); __nop(); __nop();
  3316  001562  F000               	nop	
  3317  001564  F000               	nop	
  3318  001566  F000               	nop	
  3319  001568  F000               	nop	
  3320                           
  3321                           ;newmain.c: 61: __nop(); __nop();
  3322  00156A  F000               	nop	
  3323  00156C  F000               	nop	
  3324                           
  3325                           ;newmain.c: 62: return;
  3326  00156E  0012               	return		;funcret
  3327  001570                     __end_of_DelayFor18TCY:
  3328                           	opt stack 0
  3329                           tblptru	equ	0xFF8
  3330                           tblptrh	equ	0xFF7
  3331                           tblptrl	equ	0xFF6
  3332                           tablat	equ	0xFF5
  3333                           prodh	equ	0xFF4
  3334                           prodl	equ	0xFF3
  3335                           intcon	equ	0xFF2
  3336                           wreg	equ	0xFE8
  3337                           indf2	equ	0xFDF
  3338                           fsr2h	equ	0xFDA
  3339                           fsr2l	equ	0xFD9
  3340                           status	equ	0xFD8
  3341                           
  3342 ;; *************** function _Delay_Seconds *****************
  3343 ;; Defined at:
  3344 ;;		line 25 in file "C:/Users/Davide/Desktop/Progetti_proteus_MPlabX/LCD_control_PIC18.X/newmain.c"
  3345 ;; Parameters:    Size  Location     Type
  3346 ;;  s               1    wreg     unsigned char 
  3347 ;; Auto vars:     Size  Location     Type
  3348 ;;  s               1   15[COMRAM] unsigned char 
  3349 ;;  i               1   17[COMRAM] unsigned char 
  3350 ;;  j               1   16[COMRAM] unsigned char 
  3351 ;; Return value:  Size  Location     Type
  3352 ;;		None               void
  3353 ;; Registers used:
  3354 ;;		wreg, status,2, status,0
  3355 ;; Tracked objects:
  3356 ;;		On entry : 0/0
  3357 ;;		On exit  : 0/0
  3358 ;;		Unchanged: 0/0
  3359 ;; Data sizes:     COMRAM   BANK0   BANK1   BANK2   BANK3   BANK4   BANK5   BANK6   BANK7
  3360 ;;      Params:         0       0       0       0       0       0       0       0       0
  3361 ;;      Locals:         3       0       0       0       0       0       0       0       0
  3362 ;;      Temps:          1       0       0       0       0       0       0       0       0
  3363 ;;      Totals:         4       0       0       0       0       0       0       0       0
  3364 ;;Total ram usage:        4 bytes
  3365 ;; Hardware stack levels used:    1
  3366 ;; Hardware stack levels required when called:    1
  3367 ;; This function calls:
  3368 ;;		Nothing
  3369 ;; This function is called by:
  3370 ;;		_main
  3371 ;; This function uses a non-reentrant model
  3372 ;;
  3373                           
  3374                           	psect	text23
  3375  0014A2                     __ptext23:
  3376                           	opt stack 0
  3377  0014A2                     _Delay_Seconds:
  3378                           	opt stack 29
  3379                           
  3380                           ;incstack = 0
  3381                           ;Delay_Seconds@s stored from wreg
  3382  0014A2  6E10               	movwf	Delay_Seconds@s,c
  3383                           
  3384                           ;newmain.c: 27: for(j = 0; j < s; j++)
  3385  0014A4  0E00               	movlw	0
  3386  0014A6  6E11               	movwf	Delay_Seconds@j,c
  3387  0014A8  D011               	goto	l1674
  3388  0014AA                     l1662:
  3389                           
  3390                           ;newmain.c: 28: { for(i = 0; i < 100; i++)
  3391  0014AA  0E00               	movlw	0
  3392  0014AC  6E12               	movwf	Delay_Seconds@i,c
  3393  0014AE                     l1664:
  3394  0014AE  0E63               	movlw	99
  3395  0014B0  6412               	cpfsgt	Delay_Seconds@i,c
  3396  0014B2  D001               	goto	l1668
  3397  0014B4  D009               	goto	l1672
  3398  0014B6                     l1668:
  3399                           
  3400                           ;newmain.c: 29: _delay((unsigned long)((10)*(4000000/4000.0)));
  3401  0014B6  0E0D               	movlw	13
  3402  0014B8  6E0F               	movwf	??_Delay_Seconds& (0+255),c
  3403  0014BA  0EFC               	movlw	252
  3404  0014BC                     u1297:
  3405  0014BC  2EE8               	decfsz	wreg,f,c
  3406  0014BE  D7FE               	goto	u1297
  3407  0014C0  2E0F               	decfsz	??_Delay_Seconds& (0+255),f,c
  3408  0014C2  D7FC               	goto	u1297
  3409  0014C4  2A12               	incf	Delay_Seconds@i,f,c
  3410  0014C6  D7F3               	goto	l1664
  3411  0014C8                     l1672:
  3412  0014C8  2A11               	incf	Delay_Seconds@j,f,c
  3413  0014CA  D000               	goto	l1674
  3414  0014CC                     l1674:
  3415  0014CC  5010               	movf	Delay_Seconds@s,w,c
  3416  0014CE  5C11               	subwf	Delay_Seconds@j,w,c
  3417  0014D0  A0D8               	btfss	status,0,c
  3418  0014D2  D7EB               	goto	l1662
  3419  0014D4  0012               	return		;funcret
  3420  0014D6                     __end_of_Delay_Seconds:
  3421                           	opt stack 0
  3422                           tblptru	equ	0xFF8
  3423                           tblptrh	equ	0xFF7
  3424                           tblptrl	equ	0xFF6
  3425                           tablat	equ	0xFF5
  3426                           prodh	equ	0xFF4
  3427                           prodl	equ	0xFF3
  3428                           intcon	equ	0xFF2
  3429                           wreg	equ	0xFE8
  3430                           indf2	equ	0xFDF
  3431                           fsr2h	equ	0xFDA
  3432                           fsr2l	equ	0xFD9
  3433                           status	equ	0xFD8
  3434                           
  3435 ;; *************** function _Delay_100ms *****************
  3436 ;; Defined at:
  3437 ;;		line 38 in file "C:/Users/Davide/Desktop/Progetti_proteus_MPlabX/LCD_control_PIC18.X/newmain.c"
  3438 ;; Parameters:    Size  Location     Type
  3439 ;;  x               1    wreg     unsigned char 
  3440 ;; Auto vars:     Size  Location     Type
  3441 ;;  x               1   15[COMRAM] unsigned char 
  3442 ;;  j               1   17[COMRAM] unsigned char 
  3443 ;;  i               1   16[COMRAM] unsigned char 
  3444 ;; Return value:  Size  Location     Type
  3445 ;;		None               void
  3446 ;; Registers used:
  3447 ;;		wreg, status,2, status,0
  3448 ;; Tracked objects:
  3449 ;;		On entry : 0/0
  3450 ;;		On exit  : 0/0
  3451 ;;		Unchanged: 0/0
  3452 ;; Data sizes:     COMRAM   BANK0   BANK1   BANK2   BANK3   BANK4   BANK5   BANK6   BANK7
  3453 ;;      Params:         0       0       0       0       0       0       0       0       0
  3454 ;;      Locals:         3       0       0       0       0       0       0       0       0
  3455 ;;      Temps:          1       0       0       0       0       0       0       0       0
  3456 ;;      Totals:         4       0       0       0       0       0       0       0       0
  3457 ;;Total ram usage:        4 bytes
  3458 ;; Hardware stack levels used:    1
  3459 ;; Hardware stack levels required when called:    1
  3460 ;; This function calls:
  3461 ;;		Nothing
  3462 ;; This function is called by:
  3463 ;;		_main
  3464 ;; This function uses a non-reentrant model
  3465 ;;
  3466                           
  3467                           	psect	text24
  3468  0014D6                     __ptext24:
  3469                           	opt stack 0
  3470  0014D6                     _Delay_100ms:
  3471                           	opt stack 29
  3472                           
  3473                           ;incstack = 0
  3474                           ;Delay_100ms@x stored from wreg
  3475  0014D6  6E10               	movwf	Delay_100ms@x,c
  3476                           
  3477                           ;newmain.c: 40: unsigned char i;
  3478                           ;newmain.c: 41: unsigned char j;
  3479                           ;newmain.c: 45: for (i=0;i<x;i++)
  3480  0014D8  0E00               	movlw	0
  3481  0014DA  6E11               	movwf	Delay_100ms@i,c
  3482  0014DC  D011               	goto	l1690
  3483  0014DE                     l1678:
  3484                           
  3485                           ;newmain.c: 46: for (j=0;j<10;j++)
  3486  0014DE  0E00               	movlw	0
  3487  0014E0  6E12               	movwf	Delay_100ms@j,c
  3488  0014E2                     l1680:
  3489  0014E2  0E09               	movlw	9
  3490  0014E4  6412               	cpfsgt	Delay_100ms@j,c
  3491  0014E6  D001               	goto	l1684
  3492  0014E8  D009               	goto	l1688
  3493  0014EA                     l1684:
  3494                           
  3495                           ;newmain.c: 47: _delay((unsigned long)((10)*(4000000/4000.0)));
  3496  0014EA  0E0D               	movlw	13
  3497  0014EC  6E0F               	movwf	??_Delay_100ms& (0+255),c
  3498  0014EE  0EFC               	movlw	252
  3499  0014F0                     u1307:
  3500  0014F0  2EE8               	decfsz	wreg,f,c
  3501  0014F2  D7FE               	goto	u1307
  3502  0014F4  2E0F               	decfsz	??_Delay_100ms& (0+255),f,c
  3503  0014F6  D7FC               	goto	u1307
  3504  0014F8  2A12               	incf	Delay_100ms@j,f,c
  3505  0014FA  D7F3               	goto	l1680
  3506  0014FC                     l1688:
  3507  0014FC  2A11               	incf	Delay_100ms@i,f,c
  3508  0014FE  D000               	goto	l1690
  3509  001500                     l1690:
  3510  001500  5010               	movf	Delay_100ms@x,w,c
  3511  001502  5C11               	subwf	Delay_100ms@i,w,c
  3512  001504  A0D8               	btfss	status,0,c
  3513  001506  D7EB               	goto	l1678
  3514  001508  0012               	return		;funcret
  3515  00150A                     __end_of_Delay_100ms:
  3516                           	opt stack 0
  3517                           tblptru	equ	0xFF8
  3518                           tblptrh	equ	0xFF7
  3519                           tblptrl	equ	0xFF6
  3520                           tablat	equ	0xFF5
  3521                           prodh	equ	0xFF4
  3522                           prodl	equ	0xFF3
  3523                           intcon	equ	0xFF2
  3524                           wreg	equ	0xFE8
  3525                           indf2	equ	0xFDF
  3526                           fsr2h	equ	0xFDA
  3527                           fsr2l	equ	0xFD9
  3528                           status	equ	0xFD8
  3529                           
  3530 ;; *************** function _adc_int_handler *****************
  3531 ;; Defined at:
  3532 ;;		line 94 in file "C:/Users/Davide/Desktop/Progetti_proteus_MPlabX/LCD_control_PIC18.X/newmain.c"
  3533 ;; Parameters:    Size  Location     Type
  3534 ;;		None
  3535 ;; Auto vars:     Size  Location     Type
  3536 ;;		None
  3537 ;; Return value:  Size  Location     Type
  3538 ;;		None               void
  3539 ;; Registers used:
  3540 ;;		None
  3541 ;; Tracked objects:
  3542 ;;		On entry : 0/0
  3543 ;;		On exit  : 0/0
  3544 ;;		Unchanged: 0/0
  3545 ;; Data sizes:     COMRAM   BANK0   BANK1   BANK2   BANK3   BANK4   BANK5   BANK6   BANK7
  3546 ;;      Params:         0       0       0       0       0       0       0       0       0
  3547 ;;      Locals:         0       0       0       0       0       0       0       0       0
  3548 ;;      Temps:         14       0       0       0       0       0       0       0       0
  3549 ;;      Totals:        14       0       0       0       0       0       0       0       0
  3550 ;;Total ram usage:       14 bytes
  3551 ;; Hardware stack levels used:    1
  3552 ;; This function calls:
  3553 ;;		Nothing
  3554 ;; This function is called by:
  3555 ;;		Interrupt level 2
  3556 ;; This function uses a non-reentrant model
  3557 ;;
  3558                           
  3559                           	psect	intcode
  3560  000008                     __pintcode:
  3561                           	opt stack 0
  3562  000008                     _adc_int_handler:
  3563                           	opt stack 27
  3564                           
  3565                           ;incstack = 0
  3566  000008  CFFA F001          	movff	pclath,??_adc_int_handler
  3567  00000C  CFFB F002          	movff	pclatu,??_adc_int_handler+1
  3568  000010  CFE9 F003          	movff	fsr0l,??_adc_int_handler+2
  3569  000014  EDCA  F008         	call	int_func,f	;refresh shadow registers
  3570                           pclatu	equ	0xFFB
  3571                           pclath	equ	0xFFA
  3572                           tblptru	equ	0xFF8
  3573                           tblptrh	equ	0xFF7
  3574                           tblptrl	equ	0xFF6
  3575                           tablat	equ	0xFF5
  3576                           prodh	equ	0xFF4
  3577                           prodl	equ	0xFF3
  3578                           intcon	equ	0xFF2
  3579                           fsr0l	equ	0xFE9
  3580                           wreg	equ	0xFE8
  3581                           indf2	equ	0xFDF
  3582                           fsr2h	equ	0xFDA
  3583                           fsr2l	equ	0xFD9
  3584                           status	equ	0xFD8
  3585                           
  3586                           	psect	intcode_body
  3587  001194                     __pintcode_body:
  3588                           	opt stack 27
  3589  001194                     int_func:
  3590                           	opt stack 27
  3591  001194  0006               	pop		; remove dummy address from shadow register refresh
  3592  001196  CFEA F004          	movff	fsr0h,??_adc_int_handler+3
  3593  00119A  CFE1 F005          	movff	fsr1l,??_adc_int_handler+4
  3594  00119E  CFE2 F006          	movff	fsr1h,??_adc_int_handler+5
  3595  0011A2  CFD9 F007          	movff	fsr2l,??_adc_int_handler+6
  3596  0011A6  CFDA F008          	movff	fsr2h,??_adc_int_handler+7
  3597  0011AA  CFF3 F009          	movff	prodl,??_adc_int_handler+8
  3598  0011AE  CFF4 F00A          	movff	prodh,??_adc_int_handler+9
  3599  0011B2  CFF6 F00B          	movff	tblptrl,??_adc_int_handler+10
  3600  0011B6  CFF7 F00C          	movff	tblptrh,??_adc_int_handler+11
  3601  0011BA  CFF8 F00D          	movff	tblptru,??_adc_int_handler+12
  3602  0011BE  CFF5 F00E          	movff	tablat,??_adc_int_handler+13
  3603                           
  3604                           ;newmain.c: 97: CH0_Low = ADRESL;
  3605  0011C2  CFC3 F082          	movff	4035,_CH0_Low	;volatile
  3606                           
  3607                           ;newmain.c: 98: CH0_High = ADRESH;
  3608  0011C6  CFC4 F081          	movff	4036,_CH0_High	;volatile
  3609                           
  3610                           ;newmain.c: 100: PORTD = CH0_High;
  3611  0011CA  C081  FF83         	movff	_CH0_High,3971	;volatile
  3612                           
  3613                           ;newmain.c: 102: INTCONbits.GIE = 1;
  3614  0011CE  8EF2               	bsf	intcon,7,c	;volatile
  3615                           
  3616                           ;newmain.c: 103: PIR1bits.ADIF = 0;
  3617  0011D0  9C9E               	bcf	3998,6,c	;volatile
  3618  0011D2  C00E  FFF5         	movff	??_adc_int_handler+13,tablat
  3619  0011D6  C00D  FFF8         	movff	??_adc_int_handler+12,tblptru
  3620  0011DA  C00C  FFF7         	movff	??_adc_int_handler+11,tblptrh
  3621  0011DE  C00B  FFF6         	movff	??_adc_int_handler+10,tblptrl
  3622  0011E2  C00A  FFF4         	movff	??_adc_int_handler+9,prodh
  3623  0011E6  C009  FFF3         	movff	??_adc_int_handler+8,prodl
  3624  0011EA  C008  FFDA         	movff	??_adc_int_handler+7,fsr2h
  3625  0011EE  C007  FFD9         	movff	??_adc_int_handler+6,fsr2l
  3626  0011F2  C006  FFE2         	movff	??_adc_int_handler+5,fsr1h
  3627  0011F6  C005  FFE1         	movff	??_adc_int_handler+4,fsr1l
  3628  0011FA  C004  FFEA         	movff	??_adc_int_handler+3,fsr0h
  3629  0011FE  C003  FFE9         	movff	??_adc_int_handler+2,fsr0l
  3630  001202  C002  FFFB         	movff	??_adc_int_handler+1,pclatu
  3631  001206  C001  FFFA         	movff	??_adc_int_handler,pclath
  3632  00120A  0011               	retfie		f
  3633  00120C                     __end_of_adc_int_handler:
  3634                           	opt stack 0
  3635                           pclatu	equ	0xFFB
  3636                           pclath	equ	0xFFA
  3637                           tblptru	equ	0xFF8
  3638                           tblptrh	equ	0xFF7
  3639                           tblptrl	equ	0xFF6
  3640                           tablat	equ	0xFF5
  3641                           prodh	equ	0xFF4
  3642                           prodl	equ	0xFF3
  3643                           intcon	equ	0xFF2
  3644                           fsr0h	equ	0xFEA
  3645                           fsr0l	equ	0xFE9
  3646                           wreg	equ	0xFE8
  3647                           fsr1h	equ	0xFE2
  3648                           fsr1l	equ	0xFE1
  3649                           indf2	equ	0xFDF
  3650                           fsr2h	equ	0xFDA
  3651                           fsr2l	equ	0xFD9
  3652                           status	equ	0xFD8
  3653                           pclatu	equ	0xFFB
  3654                           pclath	equ	0xFFA
  3655                           tblptru	equ	0xFF8
  3656                           tblptrh	equ	0xFF7
  3657                           tblptrl	equ	0xFF6
  3658                           tablat	equ	0xFF5
  3659                           prodh	equ	0xFF4
  3660                           prodl	equ	0xFF3
  3661                           intcon	equ	0xFF2
  3662                           fsr0h	equ	0xFEA
  3663                           fsr0l	equ	0xFE9
  3664                           wreg	equ	0xFE8
  3665                           fsr1h	equ	0xFE2
  3666                           fsr1l	equ	0xFE1
  3667                           indf2	equ	0xFDF
  3668                           fsr2h	equ	0xFDA
  3669                           fsr2l	equ	0xFD9
  3670                           status	equ	0xFD8
  3671                           
  3672                           	psect	rparam
  3673  0000                     pclatu	equ	0xFFB
  3674                           pclath	equ	0xFFA
  3675                           tblptru	equ	0xFF8
  3676                           tblptrh	equ	0xFF7
  3677                           tblptrl	equ	0xFF6
  3678                           tablat	equ	0xFF5
  3679                           prodh	equ	0xFF4
  3680                           prodl	equ	0xFF3
  3681                           intcon	equ	0xFF2
  3682                           fsr0h	equ	0xFEA
  3683                           fsr0l	equ	0xFE9
  3684                           wreg	equ	0xFE8
  3685                           fsr1h	equ	0xFE2
  3686                           fsr1l	equ	0xFE1
  3687                           indf2	equ	0xFDF
  3688                           fsr2h	equ	0xFDA
  3689                           fsr2l	equ	0xFD9
  3690                           status	equ	0xFD8


Data Sizes:
    Strings     13
    Constant    0
    Data        0
    BSS         2
    Persistent  0
    Stack       0

Auto Spaces:
    Space          Size  Autos    Used
    COMRAM           95     76      76
    BANK0           160     33      35
    BANK1           256      0       0
    BANK2           256      0       0
    BANK3           256      0       0
    BANK4           256      0       0
    BANK5           256      0       0
    BANK6           256      0       0
    BANK7           256      0       0

Pointer List with Targets:

    utoa@buf	PTR unsigned char  size(2) Largest target is 10
		 -> main@op(BANK0[10]), 

    sp__utoa	PTR unsigned char  size(2) Largest target is 10
		 -> main@op(BANK0[10]), 

    itoa@buf	PTR unsigned char  size(2) Largest target is 10
		 -> main@op(BANK0[10]), 

    itoa@cp	PTR unsigned char  size(2) Largest target is 10
		 -> main@op(BANK0[10]), 

    putrsXLCD@buffer	PTR const unsigned char  size(2) Largest target is 10
		 -> STR_2(CODE[3]), STR_1(CODE[10]), 

    sp__itoa	PTR unsigned char  size(2) Largest target is 10
		 -> main@op(BANK0[10]), 


Critical Paths under _main in COMRAM

    _main->___fttol
    _putrsXLCD->_WriteDataXLCD
    _itoa->_utoa
    _utoa->___lwdiv
    ___lltoft->___ftpack
    ___lldiv->___wmul
    ___fttol->___ftmul
    ___ftmul->___ftdiv
    ___ftdiv->___lltoft
    _OpenXLCD->_SetDDRamAddr
    _LCD_Move->_SetDDRamAddr
    _LCD_Clear->_WriteCmdXLCD

Critical Paths under _adc_int_handler in COMRAM

    None.

Critical Paths under _main in BANK0

    None.

Critical Paths under _adc_int_handler in BANK0

    None.

Critical Paths under _main in BANK1

    None.

Critical Paths under _adc_int_handler in BANK1

    None.

Critical Paths under _main in BANK2

    None.

Critical Paths under _adc_int_handler in BANK2

    None.

Critical Paths under _main in BANK3

    None.

Critical Paths under _adc_int_handler in BANK3

    None.

Critical Paths under _main in BANK4

    None.

Critical Paths under _adc_int_handler in BANK4

    None.

Critical Paths under _main in BANK5

    None.

Critical Paths under _adc_int_handler in BANK5

    None.

Critical Paths under _main in BANK6

    None.

Critical Paths under _adc_int_handler in BANK6

    None.

Critical Paths under _main in BANK7

    None.

Critical Paths under _adc_int_handler in BANK7

    None.

Call Graph Tables:

 ---------------------------------------------------------------------------------
 (Depth) Function   	        Calls       Base Space   Used Autos Params    Refs
 ---------------------------------------------------------------------------------
 (0) _main                                                34    34      0   10903
                                              0 BANK0     33    33      0
                           _BusyXLCD
                        _Delay_100ms
                      _Delay_Seconds
                          _LCD_Clear
                           _LCD_Move
                           _OpenXLCD
                       _WriteCmdXLCD
                      _WriteDataXLCD
                            ___ftdiv
                            ___ftmul
                            ___fttol
                            ___lldiv
                           ___lltoft
                             ___wmul
                               _itoa
                          _putrsXLCD
 ---------------------------------------------------------------------------------
 (1) _putrsXLCD                                            2     0      2     195
                                             15 COMRAM     2     0      2
                           _BusyXLCD
                      _WriteDataXLCD
 ---------------------------------------------------------------------------------
 (2) _WriteDataXLCD                                        1     1      0      44
                                             14 COMRAM     1     1      0
                      _DelayFor18TCY
 ---------------------------------------------------------------------------------
 (1) _itoa                                                 8     2      6    1899
                                             30 COMRAM     8     2      6
                               _utoa
 ---------------------------------------------------------------------------------
 (2) _utoa                                                 9     3      6    1100
                                             21 COMRAM     9     3      6
                            ___lwdiv
                            ___lwmod
 ---------------------------------------------------------------------------------
 (3) ___lwmod                                              5     1      4     265
                                             14 COMRAM     5     1      4
 ---------------------------------------------------------------------------------
 (3) ___lwdiv                                              7     3      4     374
                                             14 COMRAM     7     3      4
 ---------------------------------------------------------------------------------
 (1) ___wmul                                               6     2      4     477
                                             14 COMRAM     6     2      4
 ---------------------------------------------------------------------------------
 (1) ___lltoft                                             9     5      4    1790
                                             22 COMRAM     9     5      4
                           ___ftpack
 ---------------------------------------------------------------------------------
 (1) ___lldiv                                             13     5      8     480
                                             20 COMRAM    13     5      8
                             ___wmul (ARG)
 ---------------------------------------------------------------------------------
 (1) ___fttol                                             15    11      4     305
                                             61 COMRAM    15    11      4
                            ___ftdiv (ARG)
                            ___ftmul (ARG)
                           ___lltoft (ARG)
 ---------------------------------------------------------------------------------
 (1) ___ftmul                                             15     9      6    2180
                                             46 COMRAM    15     9      6
                            ___ftdiv (ARG)
                           ___ftpack
                           ___lltoft (ARG)
 ---------------------------------------------------------------------------------
 (1) ___ftdiv                                             15     9      6    2134
                                             31 COMRAM    15     9      6
                           ___ftpack
                           ___lltoft (ARG)
 ---------------------------------------------------------------------------------
 (2) ___ftpack                                             8     3      5    1668
                                             14 COMRAM     8     3      5
 ---------------------------------------------------------------------------------
 (1) _OpenXLCD                                             1     1      0     132
                                             18 COMRAM     1     1      0
                           _BusyXLCD
                       _Delay10KTCYx
                       _DelayPORXLCD
                       _SetDDRamAddr
                       _WriteCmdXLCD
 ---------------------------------------------------------------------------------
 (2) _DelayPORXLCD                                         1     1      0       0
                                             14 COMRAM     1     1      0
 ---------------------------------------------------------------------------------
 (2) _Delay10KTCYx                                         2     2      0      22
                                             14 COMRAM     2     2      0
 ---------------------------------------------------------------------------------
 (1) _LCD_Move                                             3     2      1     429
                                             18 COMRAM     3     2      1
                           _BusyXLCD
                       _SetDDRamAddr
 ---------------------------------------------------------------------------------
 (2) _SetDDRamAddr                                         4     4      0      44
                                             14 COMRAM     4     4      0
                      _DelayFor18TCY
 ---------------------------------------------------------------------------------
 (1) _LCD_Clear                                            0     0      0      44
                           _BusyXLCD
                       _WriteCmdXLCD
 ---------------------------------------------------------------------------------
 (1) _WriteCmdXLCD                                         1     1      0      44
                                             14 COMRAM     1     1      0
                      _DelayFor18TCY
 ---------------------------------------------------------------------------------
 (2) _BusyXLCD                                             0     0      0       0
                      _DelayFor18TCY
 ---------------------------------------------------------------------------------
 (3) _DelayFor18TCY                                        0     0      0       0
 ---------------------------------------------------------------------------------
 (1) _Delay_Seconds                                        4     4      0      92
                                             14 COMRAM     4     4      0
 ---------------------------------------------------------------------------------
 (1) _Delay_100ms                                          4     4      0      92
                                             14 COMRAM     4     4      0
 ---------------------------------------------------------------------------------
 Estimated maximum stack depth 3
 ---------------------------------------------------------------------------------
 (Depth) Function   	        Calls       Base Space   Used Autos Params    Refs
 ---------------------------------------------------------------------------------
 (4) _adc_int_handler                                     14    14      0       0
                                              0 COMRAM    14    14      0
 ---------------------------------------------------------------------------------
 Estimated maximum stack depth 4
 ---------------------------------------------------------------------------------

 Call Graph Graphs:

 _main (ROOT)
   _BusyXLCD
     _DelayFor18TCY
   _Delay_100ms
   _Delay_Seconds
   _LCD_Clear
     _BusyXLCD
       _DelayFor18TCY
     _WriteCmdXLCD
       _DelayFor18TCY
   _LCD_Move
     _BusyXLCD
       _DelayFor18TCY
     _SetDDRamAddr
       _DelayFor18TCY
   _OpenXLCD
     _BusyXLCD
       _DelayFor18TCY
     _Delay10KTCYx
     _DelayPORXLCD
     _SetDDRamAddr
       _DelayFor18TCY
     _WriteCmdXLCD
       _DelayFor18TCY
   _WriteCmdXLCD
     _DelayFor18TCY
   _WriteDataXLCD
     _DelayFor18TCY
   ___ftdiv
     ___ftpack
     ___lltoft (ARG)
       ___ftpack
   ___ftmul
     ___ftdiv (ARG)
       ___ftpack
       ___lltoft (ARG)
         ___ftpack
     ___ftpack (ARG)
     ___lltoft (ARG)
       ___ftpack
   ___fttol
     ___ftdiv (ARG)
       ___ftpack
       ___lltoft (ARG)
         ___ftpack
     ___ftmul (ARG)
       ___ftdiv (ARG)
         ___ftpack
         ___lltoft (ARG)
           ___ftpack
       ___ftpack (ARG)
       ___lltoft (ARG)
         ___ftpack
     ___lltoft (ARG)
       ___ftpack
   ___lldiv
     ___wmul (ARG)
   ___lltoft
     ___ftpack
   ___wmul
   _itoa
     _utoa
       ___lwdiv
       ___lwmod
   _putrsXLCD
     _BusyXLCD
       _DelayFor18TCY
     _WriteDataXLCD
       _DelayFor18TCY

 _adc_int_handler (ROOT)

 Address spaces:
Name               Size   Autos  Total    Cost      Usage
BIGRAM             7FF      0       0      21        0.0%
EEDATA             100      0       0       0        0.0%
BITBANK7           100      0       0      18        0.0%
BANK7              100      0       0      19        0.0%
BITBANK6           100      0       0      16        0.0%
BANK6              100      0       0      17        0.0%
BITBANK5           100      0       0      14        0.0%
BANK5              100      0       0      15        0.0%
BITBANK4           100      0       0      12        0.0%
BANK4              100      0       0      13        0.0%
BITBANK3           100      0       0      10        0.0%
BANK3              100      0       0      11        0.0%
BITBANK2           100      0       0       8        0.0%
BANK2              100      0       0       9        0.0%
BITBANK1           100      0       0       6        0.0%
BANK1              100      0       0       7        0.0%
BITBANK0            A0      0       0       4        0.0%
BANK0               A0     21      23       5       21.9%
BITCOMRAM           5F      0       0       0        0.0%
COMRAM              5F     4C      4C       1       80.0%
BITSFR               0      0       0      40        0.0%
SFR                  0      0       0      40        0.0%
STACK                0      0       0       2        0.0%
NULL                 0      0       0       0        0.0%
ABS                  0      0      6F      20        0.0%
DATA                 0      0      6F       3        0.0%
CODE                 0      0       0       0        0.0%


Microchip Technology PIC18 Macro Assembler V1.34 build -361300703 
Symbol Table                                                                                   Thu Feb 23 12:04:27 2017

                      l66 15C0       ___wmul@multiplicand 0011                       l105 1454  
                     l106 1468                       l173 131A                       l149 105C  
                     l423 1586                       l184 142C                       l600 0D18  
                     l513 0FA6                       l195 13EC                       l524 0F7E  
                     l621 0DFE                       l198 1530                       l704 126A  
                     l643 10E2                       l645 1106                       l637 13AC  
                     l585 0EE0                       l737 12BE                       l674 1182  
                     l747 135E                       l588 0EAC                       u715 12DE  
   __size_of_WriteCmdXLCD 0040                       wreg 000FE8              __CFG_FOSC$HS 000000  
            __CFG_LVP$OFF 000000              ___ftdiv@cntr 0029              ___ftdiv@sign 002E  
            __CFG_WDT$OFF 000000                      l2000 085E                      l2014 089C  
                    l1610 0F46                      l1602 0F02                      l1450 1294  
                    l1700 1540                      l1620 0F86                      l1612 0F66  
                    l1604 0F0E                      l1614 0F72                      l1606 0F2E  
                    l1446 1282                      l1470 133C                      l1448 128C  
                    l1632 1068                      l1730 0FE2                      l1626 0F98  
                    l1458 12B2                      l1474 1352                      l1466 132A  
                    l1642 10A4                      l1740 1014                      l1732 0FF0  
                    l1468 1334                      l1662 14AA                      l1590 1572  
                    l1910 0DA8                      l1680 14E2                      l1672 14C8  
                    l1664 14AE                      l1752 104A                      l1744 1026  
                    l1736 1002                      l1840 0C5A                      l1904 0D92  
                    l1760 146E                      l1690 1500                      l1674 14CC  
                    l1818 0E86                      l1922 0DEC                      l1914 0DBC  
                    l1684 14EA                      l1668 14B6                      l1748 1038  
                    l1828 0EBA                      l1844 0C68                      l1916 0DCA  
                    l1908 0DA2                      l1932 112A                      l1678 14DE  
                    l1694 159E                      l1598 0EF2                      l1862 0CAE  
                    l1838 0C40                      l1918 0DD4                      l1934 1138  
                    l1950 1212                      l1766 148E                      l1688 14FC  
                    l1792 0E1E                      l1872 0CDC                      l1944 1172  
                    l1936 1140                      l1952 1220                      l1776 138E  
                    l1794 0E38                      l1866 0CC4                      l1858 0C9C  
                    l1876 0CF2                      l1868 0CCA                      l1798 0E46  
                    l1886 0D38                      l1996 0846                      STR_1 0801  
                    STR_2 080B                      u1011 0E10                      u1031 0E2E  
                    u1121 0D2A                      u1140 0D56                      u1061 0C32  
                    u1081 0C50                      u1145 0D4E                      u1307 14F0  
                    u1265 08CA                      u1277 15B6                      u1287 1578  
                    u1297 14BC                      _main 0810              ___ftpack@arg 000F  
                    _itoa 1368        __size_of_LCD_Clear 0014              ___ftpack@exp 0012  
                    fsr0h 000FEA                      fsr1h 000FE2                      fsr0l 000FE9  
                    fsr2h 000FDA                      fsr1l 000FE1                      indf2 000FDF  
                    fsr2l 000FD9                      _utoa 105E                      pclat 000FFA  
  __size_of_WriteDataXLCD 0040                      prodh 000FF4                      prodl 000FF3  
                    start 0018          ?_adc_int_handler 0001             __CFG_MCLRE$ON 000000  
            ___ftmul@cntr 003C              ___param_bank 000010              ___ftmul@sign 003D  
            ___fttol@exp1 004C              ___fttol@lval 0048               LCD_Move@row 0014  
            _WriteCmdXLCD 13EE          __end_of_LCD_Move 1552             ?_SetDDRamAddr 0001  
                   ?_main 0001                     ?_itoa 001F           __end_of___ftdiv 0EE2  
         __end_of___lldiv 1194                     ?_utoa 0016           __end_of___ftmul 0D1A  
         __end_of___fttol 0E00           __end_of___lwdiv 12C8           __end_of___lwmod 1368  
             _Delay_100ms 14D6                     _PORTB 000F81                     _PORTD 000F83  
                   _TRISB 000F93                     _TRISD 000F95     __size_of_Delay10KTCYx 0018  
            ___lltoft@exp 001F             ___ftpack@sign 0013                     main@D 007C  
                   main@F 007A                     main@S 007B                     tablat 000FF5  
                   utoa@c 001E                     utoa@v 001C                     status 000FD8  
         __initialization 1588              __end_of_main 0C22              __end_of_itoa 13AE  
            __end_of_utoa 1108          __end_of_BusyXLCD 146A              _Delay10KTCYx 1570  
   __size_of_DelayPORXLCD 0012            ??_SetDDRamAddr 000F          __end_of_OpenXLCD 105E  
                  ??_main 0060             ___fttol@sign1 0047                    ??_itoa 0025  
                  ??_utoa 001C         __end_of_LCD_Clear 15B0             __activetblptr 000001  
           _WriteDataXLCD 13AE                    _ADRESH 000FC4                    _ADRESL 000FC3  
        __end_of___ftpack 0FA8          __end_of___lltoft 126C              _DelayPORXLCD 15B0  
                  ___wmul 150A                 ??___ftdiv 0026                 ??___lldiv 001D  
               ??___ftmul 0035                 ??___fttol 0042                 ??___lwdiv 0013  
               ??___lwmod 0013                    main@mV 007D            ?_WriteDataXLCD 0001  
                  main@op 006C     ___ftmul@f3_as_product 0039                    itoa@cp 0025  
            __mediumconst 0000                    tblptrh 000FF7                    tblptrl 000FF6  
                  tblptru 000FF8                __accesstop 0060   __end_of__initialization 158E  
         __CFG_PBADEN$OFF 000000                 ?_LCD_Move 0013             ___rparam_used 000001  
              ___ftdiv@f1 0020                ___ftdiv@f2 0023                ___ftdiv@f3 002A  
              ___ftmul@f1 002F                ___ftmul@f2 0032                ___fttol@f1 003E  
          __pcstackCOMRAM 0001                ___lltoft@c 0017    __size_of_DelayFor18TCY 001E  
              __pbssBANK0 0081                 ?_BusyXLCD 0001           WriteCmdXLCD@cmd 000F  
    __end_of_SetDDRamAddr 131C                ??_LCD_Move 0014                 ?_OpenXLCD 0001  
          Delay_Seconds@i 0012            Delay_Seconds@j 0011            Delay_Seconds@s 0010  
       WriteDataXLCD@data 000F                   ?___wmul 000F           ??_WriteDataXLCD 000F  
                 _CH0_Low 0082    __size_of_Delay_Seconds 0034                 ?___ftpack 000F  
               ?___lltoft 0017              ?_Delay_100ms 0001        __size_of_putrsXLCD 0038  
              ??_BusyXLCD 000F                ??_OpenXLCD 0013                   __Hparam 0000  
                 __Lparam 0000             _DelayFor18TCY 1552                   ___ftdiv 0E00  
                 ___lldiv 1108           __size_of___wmul 0028                   ___ftmul 0C22  
                 ___fttol 0D1A                   ___lwdiv 126C                   ___lwmod 131C  
            __psmallconst 0800                   __pcinit 1588                ??___ftpack 0014  
         putrsXLCD@buffer 0010  __size_of_adc_int_handler 1204                   __ramtop 0800  
              ??___lltoft 001B                   __ptext0 0810                   __ptext1 146A  
                 __ptext2 13AE                   __ptext3 1368                   __ptext4 105E  
                 __ptext5 131C                   __ptext6 126C                   __ptext7 150A  
                 __ptext8 120C                   __ptext9 1108                 _LCD_Clear 159C  
                 main@Vin 0076            __pintcode_body 1194      end_of_initialization 158E  
           _Delay_Seconds 14A2                   itoa@buf 001F                   itoa@val 0021  
                 int_func 1194           ___lldiv@divisor 0019           ___lldiv@counter 0021  
          ?_DelayFor18TCY 0001                   utoa@buf 0016                   utoa@val 0018  
       __end_of_putrsXLCD 14A2                 _TRISAbits 000F92                 _TRISBbits 000F93  
              ?_LCD_Clear 0001              Delay_100ms@i 0011              Delay_100ms@j 0012  
            Delay_100ms@x 0010     __size_of_SetDDRamAddr 0054            ?_Delay_Seconds 0001  
             ___ftdiv@exp 002D         __size_of_LCD_Move 0020               ___ftmul@exp 0038  
          __end_of___wmul 1532              _SetDDRamAddr 12C8        SetDDRamAddr@DDaddr 0012  
     start_initialization 1588         ??_adc_int_handler 0001      __size_of_Delay_100ms 0034  
       __size_of_BusyXLCD 003C           ??_DelayFor18TCY 000F         __size_of_OpenXLCD 00B6  
                ??___wmul 0013            LCD_Move@ddaddr 0015             ?_WriteCmdXLCD 0001  
          LCD_Move@column 0013         __size_of___ftpack 00C6         __size_of___lltoft 0060  
           __pcstackBANK0 0060               ??_LCD_Clear 0010           ??_Delay_Seconds 000F  
        ___lwdiv@dividend 000F                 __pintcode 0008            ??_WriteCmdXLCD 000F  
                ?___ftdiv 0020                  ?___lldiv 0015                  ?___ftmul 002F  
                ?___fttol 003E             ?_Delay10KTCYx 0001                  ?___lwdiv 000F  
                ?___lwmod 000F     __end_of_WriteDataXLCD 13EE               __smallconst 0800  
                _CH0_High 0081          ___lwdiv@quotient 0013                  _LCD_Move 1532  
          ___wmul@product 0013                  _LATBbits 000F8A                  _PIE1bits 000F9D  
           ?_DelayPORXLCD 0001                  _PIR1bits 000F9E           OpenXLCD@lcdtype 0013  
          ??_Delay10KTCYx 000F                _ADCON0bits 000FC2                _ADCON1bits 000FC1  
              _ADCON2bits 000FC0         ___wmul@multiplier 000F                 _putrsXLCD 146A  
        Delay10KTCYx@unit 0010                  _BusyXLCD 142E            ??_DelayPORXLCD 000F  
                _OpenXLCD 0FA8                  __Hrparam 0000                  __Lrparam 0000  
            __Lsmallconst 0800           _adc_int_handler 0008          __size_of___ftdiv 00E2  
        __size_of___lldiv 008C          __size_of___ftmul 00F8          __size_of___fttol 00E6  
        __size_of___lwdiv 005C          __size_of___lwmod 004C                  ___ftpack 0EE2  
                ___lltoft 120C                ?_putrsXLCD 0010           ___lwdiv@divisor 0011  
         ___lwdiv@counter 0015                  __ptext10 0D1A                  __ptext11 0C22  
                __ptext20 13EE                  __ptext12 0E00                  __ptext21 142E  
                __ptext13 0EE2                  __ptext22 1552                  __ptext14 0FA8  
                __ptext23 14A2                  __ptext15 15B0                  __ptext24 14D6  
                __ptext16 1570                  __ptext17 1532                  __ptext18 12C8  
                __ptext19 159C      __end_of_WriteCmdXLCD 142E             __size_of_main 0412  
           __size_of_itoa 0046             __size_of_utoa 00AA             ??_Delay_100ms 000F  
              _INTCONbits 000FF2                  itoa@base 0023      __end_of_Delay10KTCYx 1588  
                intlevel2 0000          ___lwmod@dividend 000F          ___lldiv@dividend 0015  
 __end_of_adc_int_handler 120C     __end_of_DelayFor18TCY 1570                  utoa@base 001A  
    __end_of_DelayPORXLCD 15C2               ??_putrsXLCD 0012          ___lldiv@quotient 001D  
         ___lwmod@divisor 0011           ___lwmod@counter 0013       __end_of_Delay_100ms 150A  
   __end_of_Delay_Seconds 14D6  
